Archive member included to satisfy reference by file (symbol)

lib/MT3620_M4_Driver/libMT3620_M4_Driver.a(printf.c.obj)
                              CMakeFiles/FreeRTOS_RTcore_GPIO.dir/main.c.obj (printf_)
lib/MT3620_M4_Driver/libMT3620_M4_Driver.a(mhal_adc.c.obj)
                              CMakeFiles/FreeRTOS_RTcore_GPIO.dir/OS_HAL/src/os_hal_adc.c.obj (mtk_mhal_adc_enable_clk)
lib/MT3620_M4_Driver/libMT3620_M4_Driver.a(hdl_adc.c.obj)
                              lib/MT3620_M4_Driver/libMT3620_M4_Driver.a(mhal_adc.c.obj) (mtk_hdl_adc_start)
lib/MT3620_M4_Driver/libMT3620_M4_Driver.a(mhal_dma.c.obj)
                              CMakeFiles/FreeRTOS_RTcore_GPIO.dir/OS_HAL/src/os_hal_dma.c.obj (mtk_mhal_dma_config)
lib/MT3620_M4_Driver/libMT3620_M4_Driver.a(hdl_dma.c.obj)
                              lib/MT3620_M4_Driver/libMT3620_M4_Driver.a(mhal_dma.c.obj) (mtk_hdl_dma_set_src)
lib/MT3620_M4_Driver/libMT3620_M4_Driver.a(mhal_gpio.c.obj)
                              CMakeFiles/FreeRTOS_RTcore_GPIO.dir/OS_HAL/src/os_hal_gpio.c.obj (mtk_mhal_gpio_get_input)
lib/MT3620_M4_Driver/libMT3620_M4_Driver.a(hdl_gpio.c.obj)
                              lib/MT3620_M4_Driver/libMT3620_M4_Driver.a(mhal_gpio.c.obj) (mtk_hdl_gpio_modify_reg)
lib/MT3620_M4_Driver/libMT3620_M4_Driver.a(mhal_uart.c.obj)
                              CMakeFiles/FreeRTOS_RTcore_GPIO.dir/OS_HAL/src/os_hal_uart.c.obj (mtk_mhal_uart_enable_clk)
lib/MT3620_M4_Driver/libMT3620_M4_Driver.a(hdl_uart.c.obj)
                              lib/MT3620_M4_Driver/libMT3620_M4_Driver.a(mhal_uart.c.obj) (mtk_hdl_uart_cg_config)
lib/MT3620_M4_Driver/libMT3620_M4_Driver.a(mhal_osai.c.obj)
                              lib/MT3620_M4_Driver/libMT3620_M4_Driver.a(hdl_adc.c.obj) (osai_readl)
lib/MT3620_M4_Driver/lib/MT3620_M4_BSP/libMT3620_M4_BSP.a(nvic.c.obj)
                              CMakeFiles/FreeRTOS_RTcore_GPIO.dir/main.c.obj (NVIC_SetupVectorTable)
lib/MT3620_M4_Driver/lib/MT3620_M4_BSP/libMT3620_M4_BSP.a(cirq_common.c.obj)
                              lib/MT3620_M4_Driver/lib/MT3620_M4_BSP/libMT3620_M4_BSP.a(nvic.c.obj) (cirq_gpio_irq_ctl_set_edge2lvl)
lib/MT3620_M4_Driver/lib/MT3620_M4_BSP/libMT3620_M4_BSP.a(vector_table.c.obj)
                              lib/MT3620_M4_Driver/lib/MT3620_M4_BSP/libMT3620_M4_BSP.a(nvic.c.obj) (__isr_vector)
lib/MT3620_M4_Driver/lib/MT3620_M4_BSP/libMT3620_M4_BSP.a(startup_mt3620.s.obj)
                              lib/MT3620_M4_Driver/lib/MT3620_M4_BSP/libMT3620_M4_BSP.a(vector_table.c.obj) (Reset_Handler)
lib/MT3620_M4_Driver/MT3620_M4_BSP/FreeRTOS/libMT3620_M4_FreeRTOS.a(queue.c.obj)
                              CMakeFiles/FreeRTOS_RTcore_GPIO.dir/OS_HAL/src/os_hal_adc.c.obj (xQueueGenericCreate)
lib/MT3620_M4_Driver/MT3620_M4_BSP/FreeRTOS/libMT3620_M4_FreeRTOS.a(tasks.c.obj)
                              CMakeFiles/FreeRTOS_RTcore_GPIO.dir/main.c.obj (xTaskCreate)
lib/MT3620_M4_Driver/MT3620_M4_BSP/FreeRTOS/libMT3620_M4_FreeRTOS.a(timers.c.obj)
                              lib/MT3620_M4_Driver/MT3620_M4_BSP/FreeRTOS/libMT3620_M4_FreeRTOS.a(tasks.c.obj) (xTimerCreateTimerTask)
lib/MT3620_M4_Driver/MT3620_M4_BSP/FreeRTOS/libMT3620_M4_FreeRTOS.a(heap_4.c.obj)
                              CMakeFiles/FreeRTOS_RTcore_GPIO.dir/modules/adc.c.obj (pvPortMalloc)
lib/MT3620_M4_Driver/MT3620_M4_BSP/FreeRTOS/libMT3620_M4_FreeRTOS.a(port.c.obj)
                              lib/MT3620_M4_Driver/MT3620_M4_BSP/FreeRTOS/libMT3620_M4_FreeRTOS.a(tasks.c.obj) (pxPortInitialiseStack)
lib/MT3620_M4_Driver/MT3620_M4_BSP/FreeRTOS/libMT3620_M4_FreeRTOS.a(list.c.obj)
                              lib/MT3620_M4_Driver/MT3620_M4_BSP/FreeRTOS/libMT3620_M4_FreeRTOS.a(queue.c.obj) (vListInitialise)
c:/progra~2/gnuarm~1/102021~1.10/bin/../lib/gcc/arm-none-eabi/10.3.1/thumb/v7e-m+fp/hard\libgcc.a(_arm_muldf3.o)
                              lib/MT3620_M4_Driver/libMT3620_M4_Driver.a(printf.c.obj) (__aeabi_dmul)
c:/progra~2/gnuarm~1/102021~1.10/bin/../lib/gcc/arm-none-eabi/10.3.1/thumb/v7e-m+fp/hard\libgcc.a(_arm_addsubdf3.o)
                              lib/MT3620_M4_Driver/libMT3620_M4_Driver.a(printf.c.obj) (__aeabi_dsub)
c:/progra~2/gnuarm~1/102021~1.10/bin/../lib/gcc/arm-none-eabi/10.3.1/thumb/v7e-m+fp/hard\libgcc.a(_arm_muldivdf3.o)
                              lib/MT3620_M4_Driver/libMT3620_M4_Driver.a(printf.c.obj) (__aeabi_ddiv)
c:/progra~2/gnuarm~1/102021~1.10/bin/../lib/gcc/arm-none-eabi/10.3.1/thumb/v7e-m+fp/hard\libgcc.a(_arm_cmpdf2.o)
                              lib/MT3620_M4_Driver/libMT3620_M4_Driver.a(printf.c.obj) (__aeabi_dcmpeq)
c:/progra~2/gnuarm~1/102021~1.10/bin/../lib/gcc/arm-none-eabi/10.3.1/thumb/v7e-m+fp/hard\libgcc.a(_arm_fixdfsi.o)
                              lib/MT3620_M4_Driver/libMT3620_M4_Driver.a(printf.c.obj) (__aeabi_d2iz)
c:/progra~2/gnuarm~1/102021~1.10/bin/../lib/gcc/arm-none-eabi/10.3.1/thumb/v7e-m+fp/hard\libgcc.a(_arm_fixunsdfsi.o)
                              lib/MT3620_M4_Driver/libMT3620_M4_Driver.a(printf.c.obj) (__aeabi_d2uiz)
c:/progra~2/gnuarm~1/102021~1.10/bin/../lib/gcc/arm-none-eabi/10.3.1/thumb/v7e-m+fp/hard\libgcc.a(_aeabi_uldivmod.o)
                              lib/MT3620_M4_Driver/libMT3620_M4_Driver.a(printf.c.obj) (__aeabi_uldivmod)
c:/progra~2/gnuarm~1/102021~1.10/bin/../lib/gcc/arm-none-eabi/10.3.1/thumb/v7e-m+fp/hard\libgcc.a(_udivmoddi4.o)
                              c:/progra~2/gnuarm~1/102021~1.10/bin/../lib/gcc/arm-none-eabi/10.3.1/thumb/v7e-m+fp/hard\libgcc.a(_aeabi_uldivmod.o) (__udivmoddi4)
c:/progra~2/gnuarm~1/102021~1.10/bin/../lib/gcc/arm-none-eabi/10.3.1/thumb/v7e-m+fp/hard\libgcc.a(_dvmd_tls.o)
                              c:/progra~2/gnuarm~1/102021~1.10/bin/../lib/gcc/arm-none-eabi/10.3.1/thumb/v7e-m+fp/hard\libgcc.a(_aeabi_uldivmod.o) (__aeabi_ldiv0)
c:/progra~2/gnuarm~1/102021~1.10/bin/../lib/gcc/arm-none-eabi/10.3.1/../../../../arm-none-eabi/lib/thumb/v7e-m+fp/hard\libg_nano.a(lib_a-memcpy-stub.o)
                              lib/MT3620_M4_Driver/libMT3620_M4_Driver.a(mhal_gpio.c.obj) (memcpy)
c:/progra~2/gnuarm~1/102021~1.10/bin/../lib/gcc/arm-none-eabi/10.3.1/../../../../arm-none-eabi/lib/thumb/v7e-m+fp/hard\libg_nano.a(lib_a-memset.o)
                              CMakeFiles/FreeRTOS_RTcore_GPIO.dir/modules/adc.c.obj (memset)

Discarded input sections

 .data          0x00000000        0x0 CMakeFiles/FreeRTOS_RTcore_GPIO.dir/main.c.obj
 .bss           0x00000000        0x0 CMakeFiles/FreeRTOS_RTcore_GPIO.dir/main.c.obj
 .data          0x00000000        0x0 CMakeFiles/FreeRTOS_RTcore_GPIO.dir/modules/gpio.c.obj
 .data          0x00000000        0x0 CMakeFiles/FreeRTOS_RTcore_GPIO.dir/modules/module.c.obj
 .bss           0x00000000        0x0 CMakeFiles/FreeRTOS_RTcore_GPIO.dir/modules/module.c.obj
 .data          0x00000000        0x0 CMakeFiles/FreeRTOS_RTcore_GPIO.dir/modules/adc.c.obj
 .data          0x00000000        0x0 CMakeFiles/FreeRTOS_RTcore_GPIO.dir/OS_HAL/src/os_hal_adc.c.obj
 .bss           0x00000000        0x0 CMakeFiles/FreeRTOS_RTcore_GPIO.dir/OS_HAL/src/os_hal_gpio.c.obj
 .data          0x00000000        0x0 CMakeFiles/FreeRTOS_RTcore_GPIO.dir/OS_HAL/src/os_hal_dma.c.obj
 .data          0x00000000        0x0 lib/MT3620_M4_Driver/libMT3620_M4_Driver.a(printf.c.obj)
 .bss           0x00000000        0x0 lib/MT3620_M4_Driver/libMT3620_M4_Driver.a(printf.c.obj)
 .data          0x00000000        0x0 lib/MT3620_M4_Driver/libMT3620_M4_Driver.a(mhal_adc.c.obj)
 .bss           0x00000000        0x0 lib/MT3620_M4_Driver/libMT3620_M4_Driver.a(mhal_adc.c.obj)
 .data          0x00000000        0x0 lib/MT3620_M4_Driver/libMT3620_M4_Driver.a(hdl_adc.c.obj)
 .bss           0x00000000        0x0 lib/MT3620_M4_Driver/libMT3620_M4_Driver.a(hdl_adc.c.obj)
 .data          0x00000000        0x0 lib/MT3620_M4_Driver/libMT3620_M4_Driver.a(mhal_dma.c.obj)
 .bss           0x00000000        0x0 lib/MT3620_M4_Driver/libMT3620_M4_Driver.a(mhal_dma.c.obj)
 .data          0x00000000        0x0 lib/MT3620_M4_Driver/libMT3620_M4_Driver.a(hdl_dma.c.obj)
 .bss           0x00000000        0x0 lib/MT3620_M4_Driver/libMT3620_M4_Driver.a(hdl_dma.c.obj)
 .data          0x00000000        0x0 lib/MT3620_M4_Driver/libMT3620_M4_Driver.a(mhal_gpio.c.obj)
 .bss           0x00000000        0x0 lib/MT3620_M4_Driver/libMT3620_M4_Driver.a(mhal_gpio.c.obj)
 .data          0x00000000        0x0 lib/MT3620_M4_Driver/libMT3620_M4_Driver.a(hdl_gpio.c.obj)
 .bss           0x00000000        0x0 lib/MT3620_M4_Driver/libMT3620_M4_Driver.a(hdl_gpio.c.obj)
 .data          0x00000000        0x0 lib/MT3620_M4_Driver/libMT3620_M4_Driver.a(mhal_uart.c.obj)
 .bss           0x00000000        0x0 lib/MT3620_M4_Driver/libMT3620_M4_Driver.a(mhal_uart.c.obj)
 .data          0x00000000        0x0 lib/MT3620_M4_Driver/libMT3620_M4_Driver.a(hdl_uart.c.obj)
 .bss           0x00000000        0x0 lib/MT3620_M4_Driver/libMT3620_M4_Driver.a(hdl_uart.c.obj)
 .data          0x00000000        0x0 lib/MT3620_M4_Driver/libMT3620_M4_Driver.a(mhal_osai.c.obj)
 .bss           0x00000000        0x0 lib/MT3620_M4_Driver/libMT3620_M4_Driver.a(mhal_osai.c.obj)
 .data          0x00000000        0x0 lib/MT3620_M4_Driver/lib/MT3620_M4_BSP/libMT3620_M4_BSP.a(nvic.c.obj)
 .bss           0x00000000        0x0 lib/MT3620_M4_Driver/lib/MT3620_M4_BSP/libMT3620_M4_BSP.a(cirq_common.c.obj)
 .data          0x00000000        0x0 lib/MT3620_M4_Driver/lib/MT3620_M4_BSP/libMT3620_M4_BSP.a(vector_table.c.obj)
 .bss           0x00000000        0x0 lib/MT3620_M4_Driver/lib/MT3620_M4_BSP/libMT3620_M4_BSP.a(vector_table.c.obj)
 .data          0x00000000        0x0 lib/MT3620_M4_Driver/lib/MT3620_M4_BSP/libMT3620_M4_BSP.a(startup_mt3620.s.obj)
 .bss           0x00000000        0x0 lib/MT3620_M4_Driver/lib/MT3620_M4_BSP/libMT3620_M4_BSP.a(startup_mt3620.s.obj)
 .data          0x00000000        0x0 lib/MT3620_M4_Driver/MT3620_M4_BSP/FreeRTOS/libMT3620_M4_FreeRTOS.a(queue.c.obj)
 .data          0x00000000        0x0 lib/MT3620_M4_Driver/MT3620_M4_BSP/FreeRTOS/libMT3620_M4_FreeRTOS.a(tasks.c.obj)
 .data          0x00000000        0x0 lib/MT3620_M4_Driver/MT3620_M4_BSP/FreeRTOS/libMT3620_M4_FreeRTOS.a(timers.c.obj)
 .data          0x00000000        0x0 lib/MT3620_M4_Driver/MT3620_M4_BSP/FreeRTOS/libMT3620_M4_FreeRTOS.a(heap_4.c.obj)
 .rodata        0x00000000        0x4 lib/MT3620_M4_Driver/MT3620_M4_BSP/FreeRTOS/libMT3620_M4_FreeRTOS.a(heap_4.c.obj)
 .rodata        0x00000000        0x4 lib/MT3620_M4_Driver/MT3620_M4_BSP/FreeRTOS/libMT3620_M4_FreeRTOS.a(port.c.obj)
 .data          0x00000000        0x0 lib/MT3620_M4_Driver/MT3620_M4_BSP/FreeRTOS/libMT3620_M4_FreeRTOS.a(list.c.obj)
 .bss           0x00000000        0x0 lib/MT3620_M4_Driver/MT3620_M4_BSP/FreeRTOS/libMT3620_M4_FreeRTOS.a(list.c.obj)
 .text          0x00000000      0x254 c:/progra~2/gnuarm~1/102021~1.10/bin/../lib/gcc/arm-none-eabi/10.3.1/thumb/v7e-m+fp/hard\libgcc.a(_arm_muldf3.o)
 .data          0x00000000        0x0 c:/progra~2/gnuarm~1/102021~1.10/bin/../lib/gcc/arm-none-eabi/10.3.1/thumb/v7e-m+fp/hard\libgcc.a(_arm_muldf3.o)
 .bss           0x00000000        0x0 c:/progra~2/gnuarm~1/102021~1.10/bin/../lib/gcc/arm-none-eabi/10.3.1/thumb/v7e-m+fp/hard\libgcc.a(_arm_muldf3.o)
 .debug_frame   0x00000000       0x30 c:/progra~2/gnuarm~1/102021~1.10/bin/../lib/gcc/arm-none-eabi/10.3.1/thumb/v7e-m+fp/hard\libgcc.a(_arm_muldf3.o)
 .ARM.attributes
                0x00000000       0x1e c:/progra~2/gnuarm~1/102021~1.10/bin/../lib/gcc/arm-none-eabi/10.3.1/thumb/v7e-m+fp/hard\libgcc.a(_arm_muldf3.o)
 .data          0x00000000        0x0 c:/progra~2/gnuarm~1/102021~1.10/bin/../lib/gcc/arm-none-eabi/10.3.1/thumb/v7e-m+fp/hard\libgcc.a(_arm_addsubdf3.o)
 .bss           0x00000000        0x0 c:/progra~2/gnuarm~1/102021~1.10/bin/../lib/gcc/arm-none-eabi/10.3.1/thumb/v7e-m+fp/hard\libgcc.a(_arm_addsubdf3.o)
 .data          0x00000000        0x0 c:/progra~2/gnuarm~1/102021~1.10/bin/../lib/gcc/arm-none-eabi/10.3.1/thumb/v7e-m+fp/hard\libgcc.a(_arm_muldivdf3.o)
 .bss           0x00000000        0x0 c:/progra~2/gnuarm~1/102021~1.10/bin/../lib/gcc/arm-none-eabi/10.3.1/thumb/v7e-m+fp/hard\libgcc.a(_arm_muldivdf3.o)
 .data          0x00000000        0x0 c:/progra~2/gnuarm~1/102021~1.10/bin/../lib/gcc/arm-none-eabi/10.3.1/thumb/v7e-m+fp/hard\libgcc.a(_arm_cmpdf2.o)
 .bss           0x00000000        0x0 c:/progra~2/gnuarm~1/102021~1.10/bin/../lib/gcc/arm-none-eabi/10.3.1/thumb/v7e-m+fp/hard\libgcc.a(_arm_cmpdf2.o)
 .data          0x00000000        0x0 c:/progra~2/gnuarm~1/102021~1.10/bin/../lib/gcc/arm-none-eabi/10.3.1/thumb/v7e-m+fp/hard\libgcc.a(_arm_fixdfsi.o)
 .bss           0x00000000        0x0 c:/progra~2/gnuarm~1/102021~1.10/bin/../lib/gcc/arm-none-eabi/10.3.1/thumb/v7e-m+fp/hard\libgcc.a(_arm_fixdfsi.o)
 .data          0x00000000        0x0 c:/progra~2/gnuarm~1/102021~1.10/bin/../lib/gcc/arm-none-eabi/10.3.1/thumb/v7e-m+fp/hard\libgcc.a(_arm_fixunsdfsi.o)
 .bss           0x00000000        0x0 c:/progra~2/gnuarm~1/102021~1.10/bin/../lib/gcc/arm-none-eabi/10.3.1/thumb/v7e-m+fp/hard\libgcc.a(_arm_fixunsdfsi.o)
 .data          0x00000000        0x0 c:/progra~2/gnuarm~1/102021~1.10/bin/../lib/gcc/arm-none-eabi/10.3.1/thumb/v7e-m+fp/hard\libgcc.a(_aeabi_uldivmod.o)
 .bss           0x00000000        0x0 c:/progra~2/gnuarm~1/102021~1.10/bin/../lib/gcc/arm-none-eabi/10.3.1/thumb/v7e-m+fp/hard\libgcc.a(_aeabi_uldivmod.o)
 .data          0x00000000        0x0 c:/progra~2/gnuarm~1/102021~1.10/bin/../lib/gcc/arm-none-eabi/10.3.1/thumb/v7e-m+fp/hard\libgcc.a(_udivmoddi4.o)
 .bss           0x00000000        0x0 c:/progra~2/gnuarm~1/102021~1.10/bin/../lib/gcc/arm-none-eabi/10.3.1/thumb/v7e-m+fp/hard\libgcc.a(_udivmoddi4.o)
 .ARM.extab     0x00000000        0x0 c:/progra~2/gnuarm~1/102021~1.10/bin/../lib/gcc/arm-none-eabi/10.3.1/thumb/v7e-m+fp/hard\libgcc.a(_udivmoddi4.o)
 .data          0x00000000        0x0 c:/progra~2/gnuarm~1/102021~1.10/bin/../lib/gcc/arm-none-eabi/10.3.1/thumb/v7e-m+fp/hard\libgcc.a(_dvmd_tls.o)
 .bss           0x00000000        0x0 c:/progra~2/gnuarm~1/102021~1.10/bin/../lib/gcc/arm-none-eabi/10.3.1/thumb/v7e-m+fp/hard\libgcc.a(_dvmd_tls.o)
 .text          0x00000000        0x0 c:/progra~2/gnuarm~1/102021~1.10/bin/../lib/gcc/arm-none-eabi/10.3.1/../../../../arm-none-eabi/lib/thumb/v7e-m+fp/hard\libg_nano.a(lib_a-memcpy-stub.o)
 .data          0x00000000        0x0 c:/progra~2/gnuarm~1/102021~1.10/bin/../lib/gcc/arm-none-eabi/10.3.1/../../../../arm-none-eabi/lib/thumb/v7e-m+fp/hard\libg_nano.a(lib_a-memcpy-stub.o)
 .bss           0x00000000        0x0 c:/progra~2/gnuarm~1/102021~1.10/bin/../lib/gcc/arm-none-eabi/10.3.1/../../../../arm-none-eabi/lib/thumb/v7e-m+fp/hard\libg_nano.a(lib_a-memcpy-stub.o)
 .text          0x00000000        0x0 c:/progra~2/gnuarm~1/102021~1.10/bin/../lib/gcc/arm-none-eabi/10.3.1/../../../../arm-none-eabi/lib/thumb/v7e-m+fp/hard\libg_nano.a(lib_a-memset.o)
 .data          0x00000000        0x0 c:/progra~2/gnuarm~1/102021~1.10/bin/../lib/gcc/arm-none-eabi/10.3.1/../../../../arm-none-eabi/lib/thumb/v7e-m+fp/hard\libg_nano.a(lib_a-memset.o)
 .bss           0x00000000        0x0 c:/progra~2/gnuarm~1/102021~1.10/bin/../lib/gcc/arm-none-eabi/10.3.1/../../../../arm-none-eabi/lib/thumb/v7e-m+fp/hard\libg_nano.a(lib_a-memset.o)

Memory Configuration

Name             Origin             Length             Attributes
TCM              0x00100000         0x00030000         xrw
SYSRAM           0x22000000         0x00010000         xrw
FLASH            0x10000000         0x00100000         xr
*default*        0x00000000         0xffffffff

Linker script and memory map

LOAD CMakeFiles/FreeRTOS_RTcore_GPIO.dir/main.c.obj
LOAD CMakeFiles/FreeRTOS_RTcore_GPIO.dir/modules/gpio.c.obj
LOAD CMakeFiles/FreeRTOS_RTcore_GPIO.dir/modules/module.c.obj
LOAD CMakeFiles/FreeRTOS_RTcore_GPIO.dir/modules/adc.c.obj
LOAD CMakeFiles/FreeRTOS_RTcore_GPIO.dir/OS_HAL/src/os_hal_adc.c.obj
LOAD CMakeFiles/FreeRTOS_RTcore_GPIO.dir/OS_HAL/src/os_hal_gpio.c.obj
LOAD CMakeFiles/FreeRTOS_RTcore_GPIO.dir/OS_HAL/src/os_hal_uart.c.obj
LOAD CMakeFiles/FreeRTOS_RTcore_GPIO.dir/OS_HAL/src/os_hal_dma.c.obj
LOAD lib/MT3620_M4_Driver/libMT3620_M4_Driver.a
LOAD lib/MT3620_M4_Driver/lib/MT3620_M4_BSP/libMT3620_M4_BSP.a
LOAD lib/MT3620_M4_Driver/MT3620_M4_BSP/FreeRTOS/libMT3620_M4_FreeRTOS.a
START GROUP
LOAD c:/progra~2/gnuarm~1/102021~1.10/bin/../lib/gcc/arm-none-eabi/10.3.1/thumb/v7e-m+fp/hard\libgcc.a
LOAD c:/progra~2/gnuarm~1/102021~1.10/bin/../lib/gcc/arm-none-eabi/10.3.1/../../../../arm-none-eabi/lib/thumb/v7e-m+fp/hard\libg_nano.a
LOAD c:/progra~2/gnuarm~1/102021~1.10/bin/../lib/gcc/arm-none-eabi/10.3.1/../../../../arm-none-eabi/lib/thumb/v7e-m+fp/hard\libc_nano.a
END GROUP
START GROUP
LOAD c:/progra~2/gnuarm~1/102021~1.10/bin/../lib/gcc/arm-none-eabi/10.3.1/thumb/v7e-m+fp/hard\libgcc.a
LOAD c:/progra~2/gnuarm~1/102021~1.10/bin/../lib/gcc/arm-none-eabi/10.3.1/../../../../arm-none-eabi/lib/thumb/v7e-m+fp/hard\libc_nano.a
LOAD c:/progra~2/gnuarm~1/102021~1.10/bin/../lib/gcc/arm-none-eabi/10.3.1/../../../../arm-none-eabi/lib/thumb/v7e-m+fp/hard\libnosys.a
END GROUP
START GROUP
LOAD c:/progra~2/gnuarm~1/102021~1.10/bin/../lib/gcc/arm-none-eabi/10.3.1/thumb/v7e-m+fp/hard\libgcc.a
LOAD c:/progra~2/gnuarm~1/102021~1.10/bin/../lib/gcc/arm-none-eabi/10.3.1/../../../../arm-none-eabi/lib/thumb/v7e-m+fp/hard\libc_nano.a
LOAD c:/progra~2/gnuarm~1/102021~1.10/bin/../lib/gcc/arm-none-eabi/10.3.1/../../../../arm-none-eabi/lib/thumb/v7e-m+fp/hard\libnosys.a
END GROUP

.text           0x00100000     0xe8b4
                0x00100000                __vector_table_start__ = .
 *(.vector_table)
 .vector_table  0x00100000      0x1d0 lib/MT3620_M4_Driver/lib/MT3620_M4_BSP/libMT3620_M4_BSP.a(vector_table.c.obj)
                0x00100000                __isr_vector
                0x001001d0                __vector_table_end__ = .
 *(.text)
 .text          0x001001d0       0x6c CMakeFiles/FreeRTOS_RTcore_GPIO.dir/main.c.obj
                0x001001d0                RTCoreMain
 .text          0x0010023c      0x104 CMakeFiles/FreeRTOS_RTcore_GPIO.dir/modules/gpio.c.obj
                0x0010023c                gpio_Init
                0x001002a4                gpio_task
 .text          0x00100340       0x6c CMakeFiles/FreeRTOS_RTcore_GPIO.dir/modules/module.c.obj
                0x00100340                vApplicationStackOverflowHook
                0x00100364                vApplicationMallocFailedHook
                0x0010037c                _putchar
 .text          0x001003ac      0x580 CMakeFiles/FreeRTOS_RTcore_GPIO.dir/modules/adc.c.obj
                0x001003ac                mtk_adc_periodic_mode_callback
                0x001003dc                mtk_adc_one_shot_mode_test
                0x00100520                mtk_adc_periodic_mode_test
                0x00100890                adc_task
 .text          0x0010092c      0x4c0 CMakeFiles/FreeRTOS_RTcore_GPIO.dir/OS_HAL/src/os_hal_adc.c.obj
                0x00100a2e                mtk_os_hal_adc_ctlr_init
                0x00100ad0                mtk_os_hal_adc_ctlr_deinit
                0x00100b56                mtk_os_hal_adc_fsm_param_set
                0x00100c9c                mtk_os_hal_adc_trigger_one_shot_once
                0x00100d1c                mtk_os_hal_adc_period_start
                0x00100d84                mtk_os_hal_adc_period_stop
 .text          0x00100dec       0xfc CMakeFiles/FreeRTOS_RTcore_GPIO.dir/OS_HAL/src/os_hal_gpio.c.obj
                0x00100dec                mtk_os_hal_gpio_get_input
                0x00100e14                mtk_os_hal_gpio_set_output
                0x00100e40                mtk_os_hal_gpio_get_output
                0x00100e68                mtk_os_hal_gpio_set_direction
                0x00100e94                mtk_os_hal_gpio_get_direction
                0x00100ebc                mtk_os_hal_gpio_set_pullen_pullsel
 .text          0x00100ee8      0x764 CMakeFiles/FreeRTOS_RTcore_GPIO.dir/OS_HAL/src/os_hal_uart.c.obj
                0x00100f14                mtk_os_hal_uart_ctlr_init
                0x00100fd4                mtk_os_hal_uart_ctlr_deinit
                0x00101008                mtk_os_hal_uart_dumpreg
                0x00101036                mtk_os_hal_uart_set_baudrate
                0x0010106e                mtk_os_hal_uart_set_format
                0x001010c8                mtk_os_hal_uart_get_char
                0x001010fe                mtk_os_hal_uart_get_char_nowait
                0x00101134                mtk_os_hal_uart_put_char
                0x0010116c                mtk_os_hal_uart_clear_irq_status
                0x001011a0                mtk_os_hal_uart_set_irq
                0x001011d8                mtk_os_hal_uart_set_hw_fc
                0x00101210                mtk_os_hal_uart_disable_sw_fc
                0x0010123e                mtk_os_hal_uart_set_sw_fc
                0x00101378                mtk_os_hal_uart_dma_send_data
                0x001014e0                mtk_os_hal_uart_dma_get_data
 .text          0x0010164c      0xa20 CMakeFiles/FreeRTOS_RTcore_GPIO.dir/OS_HAL/src/os_hal_dma.c.obj
                0x00101882                mtk_os_hal_dma_alloc_chan
                0x00101a28                mtk_os_hal_dma_config
                0x00101cb4                mtk_os_hal_dma_start
                0x00101ce8                mtk_os_hal_dma_stop
                0x00101d22                mtk_os_hal_dma_pause
                0x00101d56                mtk_os_hal_dma_resume
                0x00101d8a                mtk_os_hal_dma_get_status
                0x00101dbe                mtk_os_hal_dma_register_isr
                0x00101e70                mtk_os_hal_dma_dump_register
                0x00101ea4                mtk_os_hal_dma_set_param
                0x00101ee2                mtk_os_hal_dma_get_param
                0x00101f24                mtk_os_hal_dma_update_swptr
                0x00101f60                mtk_os_hal_dma_vff_read_data
                0x00101fa0                mtk_os_hal_dma_release_chan
                0x00101ffc                mtk_os_hal_dma_reset
                0x00102036                mtk_os_hal_dma_clr_dreq
 *fill*         0x0010206c        0x4 
 .text          0x00102070     0x1a14 lib/MT3620_M4_Driver/libMT3620_M4_Driver.a(printf.c.obj)
                0x00103940                printf_
                0x00103978                sprintf_
                0x001039b0                snprintf_
                0x001039e8                vprintf_
                0x00103a14                vsnprintf_
                0x00103a40                fctprintf
 .text          0x00103a84      0x690 lib/MT3620_M4_Driver/libMT3620_M4_Driver.a(mhal_adc.c.obj)
                0x00103c44                _mtk_mhal_adc_stop_dma
                0x00103c6c                mtk_mhal_adc_enable_clk
                0x00103ca2                mtk_mhal_adc_disable_clk
                0x00103cd8                mtk_mhal_adc_init
                0x00103d42                mtk_mhal_adc_deinit
                0x00103dda                mtk_mhal_adc_fsm_param_set
                0x00103f78                mtk_mhal_adc_start
                0x00104038                mtk_mhal_adc_stop
                0x001040b4                mtk_mhal_adc_fifo_handle_rx
 .text          0x00104114      0x56a lib/MT3620_M4_Driver/libMT3620_M4_Driver.a(hdl_adc.c.obj)
                0x00104114                mtk_hdl_adc_start
                0x00104140                mtk_hdl_adc_stop
                0x0010416c                mtk_hal_adc_init
                0x00104286                mtk_hal_adc_uninit
                0x001042b2                mtk_hdl_adc_enable_clk
                0x001042da                mtk_hdl_adc_disable_clk
                0x00104302                mtk_hdl_adc_fsm_param_set
                0x00104416                mtk_hdl_adc_fsm_param_get
                0x0010448c                mtk_hdl_adc_reset
                0x001044c8                mtk_hdl_adc_dma_enable
                0x0010452c                mtk_hdl_adc_fifo_rx_full_enable
                0x00104574                mtk_hdl_adc_trigger_level_set
                0x001045ac                mtk_hdl_adc_periodic_mode_set
                0x001045e4                mtk_hdl_adc_fifo_get_length
                0x0010465a                mtk_hdl_adc_fifo_read_data
 *fill*         0x0010467e        0x2 
 .text          0x00104680      0xf80 lib/MT3620_M4_Driver/libMT3620_M4_Driver.a(mhal_dma.c.obj)
                0x00104ddc                mtk_mhal_dma_config
                0x00104e60                mtk_mhal_dma_start
                0x00104eb8                mtk_mhal_dma_stop
                0x00104ef4                mtk_mhal_dma_pause
                0x00104f2c                mtk_mhal_dma_resume
                0x00104f7c                mtk_mhal_dma_get_status
                0x00105004                mtk_mhal_dma_set_param
                0x001050ac                mtk_mhal_dma_get_param
                0x001052de                mtk_mhal_dma_clear_irq_status
                0x00105348                mtk_mhal_dma_dump_reg
                0x0010538c                mtk_mhal_dma_clock_enable
                0x001053c4                mtk_mhal_dma_clock_disable
                0x001053fc                mtk_mhal_dma_reset
                0x00105494                mtk_mhal_dma_update_swptr
                0x001054f8                mtk_mhal_dma_vff_read_data
                0x001055c8                mtk_mhal_dma_clr_dreq
 .text          0x00105600      0x9bc lib/MT3620_M4_Driver/libMT3620_M4_Driver.a(hdl_dma.c.obj)
                0x001056a2                mtk_hdl_dma_set_src
                0x001056bc                mtk_hdl_dma_set_dst
                0x001056da                mtk_hdl_dma_set_wppt
                0x0010570c                mtk_hdl_dma_set_wpto
                0x0010572a                mtk_hdl_dma_set_count
                0x0010578c                mtk_hdl_dma_set_con
                0x001057aa                mtk_hdl_dma_get_remain_cnt
                0x001057da                mtk_hdl_dma_set_bw_limiter
                0x001057fc                mtk_hdl_dma_set_pgmaddr
                0x0010581a                mtk_hdl_dma_get_pgmaddr
                0x00105836                mtk_hdl_dma_set_altlen
                0x0010589e                mtk_hdl_dma_set_ffsize
                0x001058e0                mtk_hdl_dma_set_timeout_thr
                0x001058fe                mtk_hdl_dma_get_hwptr
                0x0010591e                mtk_hdl_dma_set_swptr
                0x0010596e                mtk_hdl_dma_get_swptr
                0x0010598e                mtk_hdl_dma_set_fixaddr
                0x001059ac                mtk_hdl_dma_get_fixaddr
                0x001059c8                mtk_hdl_dma_get_vfifo_ffcnt
                0x001059f8                mtk_hdl_dma_get_vfifo_ffsize
                0x00105a28                mtk_hdl_dma_enable_reload
                0x00105a58                mtk_hdl_dma_disable_reload
                0x00105a88                mtk_hdl_dma_start
                0x00105aa6                mtk_hdl_dma_stop_now
                0x00105ac2                mtk_hdl_dma_ack_int
                0x00105ae0                mtk_hdl_dma_ack_half_int
                0x00105afe                mtk_hdl_dma_ack_timeout_int
                0x00105b1c                mtk_hdl_dma_chk_run_status
                0x00105b8a                mtk_hdl_dma_chk_int_status
                0x00105bf8                mtk_hdl_dma_chk_int
                0x00105c24                mtk_hdl_dma_chk_half_int
                0x00105c50                mtk_hdl_dma_chk_timeout_int
                0x00105c7c                mtk_hdl_dma_dump_chn_reg
                0x00105cec                mtk_hdl_dma_dump_global_reg
                0x00105d60                mtk_hdl_dma_chk_pause_status
                0x00105d94                mtk_hdl_dma_pause
                0x00105dd2                mtk_hdl_dma_resume
                0x00105e12                mtk_hdl_dma_reset_chn
                0x00105e78                mtk_hdl_dma_set_dreq
                0x00105ed4                mtk_hdl_dma_clr_dreq
                0x00105f30                mtk_hdl_dma_clock_enable
                0x00105f78                mtk_hdl_dma_clock_disable
 .text          0x00105fbc      0xcf8 lib/MT3620_M4_Driver/libMT3620_M4_Driver.a(mhal_gpio.c.obj)
                0x0010671e                mtk_mhal_gpio_get_input
                0x0010679c                mtk_mhal_gpio_set_output
                0x0010682c                mtk_mhal_gpio_get_output
                0x001068aa                mtk_mhal_gpio_set_direction
                0x00106952                mtk_mhal_gpio_get_direction
                0x00106a02                mtk_mhal_gpio_set_pullen_pullsel
                0x00106aec                mtk_mhal_gpio_pmx_set_mode
                0x00106bd2                mtk_mhal_gpio_pmx_get_mode
 .text          0x00106cb4       0xf2 lib/MT3620_M4_Driver/libMT3620_M4_Driver.a(hdl_gpio.c.obj)
                0x00106cb4                mtk_hdl_gpio_modify_reg
                0x00106d10                mtk_hdl_gpio_set_pu_pd_ctrl_by_sw_cr
                0x00106d3c                mtk_hdl_gpio_set_mode_reg
                0x00106d80                mtk_hdl_gpio_get_mode_reg_val
 *fill*         0x00106da6        0x2 
 .text          0x00106da8      0x904 lib/MT3620_M4_Driver/libMT3620_M4_Driver.a(mhal_uart.c.obj)
                0x00106da8                mtk_mhal_uart_enable_clk
                0x00106dd2                mtk_mhal_uart_disable_clk
                0x00106dfc                mtk_mhal_uart_sw_reset
                0x00106e24                mtk_mhal_uart_dumpreg
                0x00106e4c                mtk_mhal_uart_hw_init
                0x00106e98                mtk_mhal_uart_set_baudrate
                0x00106ee0                mtk_mhal_uart_set_format
                0x00106f64                mtk_mhal_uart_set_hw_fc
                0x00106fb2                mtk_mhal_uart_disable_sw_fc
                0x00106fda                mtk_mhal_uart_set_sw_fc
                0x00107040                mtk_mhal_uart_set_dma
                0x00107070                mtk_mhal_uart_clear_irq_status
                0x0010709c                mtk_mhal_uart_set_irq
                0x001070cc                mtk_mhal_uart_putc
                0x001070fc                mtk_mhal_uart_getc
                0x0010712e                mtk_mhal_uart_getc_nowait
                0x0010715a                mtk_mhal_uart_dma_tx_callback_register
                0x0010719e                mtk_mhal_uart_dma_rx_callback_register
                0x0010723a                mtk_mhal_uart_allocate_dma_tx_ch
                0x00107272                mtk_mhal_uart_allocate_dma_rx_ch
                0x001072aa                mtk_mhal_uart_release_dma_tx_ch
                0x001072e2                mtk_mhal_uart_release_dma_rx_ch
                0x0010731a                mtk_mhal_uart_dma_tx_config
                0x001073c0                mtk_mhal_uart_dma_rx_config
                0x0010746c                mtk_mhal_uart_start_dma_tx
                0x001074f4                mtk_mhal_uart_start_dma_rx
                0x00107552                mtk_mhal_uart_stop_dma_tx
                0x00107596                mtk_mhal_uart_stop_dma_rx
                0x001075da                mtk_mhal_uart_update_dma_tx_info
                0x00107646                mtk_mhal_uart_update_dma_rx_info
 .text          0x001076ac      0x63c lib/MT3620_M4_Driver/libMT3620_M4_Driver.a(hdl_uart.c.obj)
                0x001076ac                mtk_hdl_uart_cg_config
                0x001076e8                mtk_hdl_uart_reset
                0x0010771c                mtk_hdl_uart_dmreg
                0x00107744                mtk_hdl_uart_init
                0x00107778                mtk_hdl_uart_set_baudrate
                0x001078f8                mtk_hdl_uart_set_format
                0x00107966                mtk_hdl_uart_dma_en
                0x001079bc                mtk_hdl_uart_tx_dma_handshake
                0x00107a04                mtk_hdl_uart_rx_dma_handshake
                0x00107a4c                mtk_hdl_uart_clear_irq_status
                0x00107a9a                mtk_hdl_uart_set_irq
                0x00107abc                mtk_hdl_uart_set_hw_fc
                0x00107b56                mtk_hdl_uart_disable_sw_fc
                0x00107ba6                mtk_hdl_uart_set_sw_fc
                0x00107c7e                mtk_hdl_uart_output_char
                0x00107cb2                mtk_hdl_uart_input_char
 .text          0x00107ce8      0x35c lib/MT3620_M4_Driver/libMT3620_M4_Driver.a(mhal_osai.c.obj)
                0x00107ce8                osai_delay_us
                0x00107d78                osai_delay_ms
                0x00107da4                osai_readl
                0x00107dbc                osai_writel
                0x00107dd8                osai_get_phyaddr
                0x00107dee                osai_clean_cache
                0x00107e04                osai_invalid_cache
                0x00107e1a                osai_dma_allocate_chan
                0x00107e36                osai_dma_config
                0x00107f0a                osai_dma_start
                0x00107f26                osai_dma_stop
                0x00107f42                osai_dma_set_param
                0x00107f68                osai_dma_get_param
                0x00107f8e                osai_dma_release_chan
                0x00107faa                osai_dma_get_status
                0x00107fc6                osai_dma_update_vfifo_swptr
                0x00107fe6                osai_dma_vff_read_data
                0x0010800a                osai_dma_reset
                0x00108026                osai_dma_clr_dreq
 .text          0x00108044      0x3a0 lib/MT3620_M4_Driver/lib/MT3620_M4_BSP/libMT3620_M4_BSP.a(nvic.c.obj)
                0x00108178                SystmTick_Handler
                0x00108194                NVIC_Register
                0x001081d4                NVIC_UnRegister
                0x00108214                NVIC_SetupVectorTable
                0x00108258                NVIC_SWInt
                0x00108278                NVIC_ISR_Check_and_backup
                0x001082b0                NVIC_ISR_Restore
                0x001082e0                CM4_Install_NVIC
                0x00108366                cm4_irq_set_sw_reset
                0x00108384                cm4_irq_clear_sw_reset
                0x001083a4                cm4_irq_sw_reset
 .text          0x001083e4      0xcd0 lib/MT3620_M4_Driver/lib/MT3620_M4_BSP/libMT3620_M4_BSP.a(cirq_common.c.obj)
                0x001083e4                cirq_gpio_irq_ctl_set_level
                0x001084cc                cirq_gpio_irq_ctl_set_edge
                0x001085bc                cirq_gpio_irq_ctl_set_edge2lvl
                0x001086a4                cirq_gpio_irq_ctl_clr_edge2lvl
                0x00108794                cirq_gpio_irq_ctl_ack_edge2lvl
                0x0010887c                cirq_irq_test_set_trigger
                0x001089fc                cirq_irq_test_clr_trigger
                0x00108b8c                cirq_irq_dis_set_trigger
                0x00108cc8                cirq_irq_dis_clr_trigger
                0x00108e14                cirq_irq_ctl_set_level
                0x00108eb8                cirq_irq_ctl_set_edge
                0x00108f64                cirq_cm4_wic_enable
                0x00109010                cirq_cm4_wic_disable
 .text          0x001090b4        0x6 lib/MT3620_M4_Driver/lib/MT3620_M4_BSP/libMT3620_M4_BSP.a(vector_table.c.obj)
                0x001090b4                MPU_Fault_Handler
                0x001090b4                Bus_Fault_Handler
                0x001090b4                Usage_Fault_Handler
                0x001090b4                Debug_Monitor_Handler
                0x001090b4                Hard_Fault_Handler
                0x001090b4                NMI_Handler
 *fill*         0x001090ba        0x2 
 .text          0x001090bc       0x20 lib/MT3620_M4_Driver/lib/MT3620_M4_BSP/libMT3620_M4_BSP.a(startup_mt3620.s.obj)
                0x001090bc                Reset_Handler
 .text          0x001090dc     0x1464 lib/MT3620_M4_Driver/MT3620_M4_BSP/FreeRTOS/libMT3620_M4_FreeRTOS.a(queue.c.obj)
                0x001090dc                xQueueGenericReset
                0x001091ac                xQueueGenericCreate
                0x0010929e                xQueueCreateMutex
                0x001092ce                xQueueGiveMutexRecursive
                0x00109336                xQueueTakeMutexRecursive
                0x001093a2                xQueueCreateCountingSemaphore
                0x00109408                xQueueGenericSend
                0x00109604                xQueueGenericSendFromISR
                0x00109734                xQueueGiveFromISR
                0x0010984e                xQueueReceive
                0x00109a0c                xQueueSemaphoreTake
                0x00109c24                xQueuePeek
                0x00109de8                xQueueReceiveFromISR
                0x00109ee8                xQueuePeekFromISR
                0x00109fba                uxQueueMessagesWaiting
                0x00109ff6                uxQueueSpacesAvailable
                0x0010a03c                uxQueueMessagesWaitingFromISR
                0x0010a078                vQueueDelete
                0x0010a0b4                uxQueueGetQueueNumber
                0x0010a0cc                vQueueSetQueueNumber
                0x0010a0e8                ucQueueGetQueueType
                0x0010a322                xQueueIsQueueEmptyFromISR
                0x0010a39a                xQueueIsQueueFullFromISR
                0x0010a3e6                vQueueAddToRegistry
                0x0010a438                pcQueueGetName
                0x0010a484                vQueueUnregisterQueue
                0x0010a4d8                vQueueWaitForMessageRestricted
 .text          0x0010a540     0x23d4 lib/MT3620_M4_Driver/MT3620_M4_BSP/FreeRTOS/libMT3620_M4_FreeRTOS.a(tasks.c.obj)
                0x0010a540                xTaskCreate
                0x0010a7c4                vTaskDelete
                0x0010a8e4                vTaskDelayUntil
                0x0010a9e0                vTaskDelay
                0x0010aa48                eTaskGetState
                0x0010ab14                uxTaskPriorityGet
                0x0010ab48                uxTaskPriorityGetFromISR
                0x0010aba0                vTaskPrioritySet
                0x0010acf4                vTaskSuspend
                0x0010ae7c                vTaskResume
                0x0010af38                xTaskResumeFromISR
                0x0010b01c                vTaskStartScheduler
                0x0010b0b8                vTaskEndScheduler
                0x0010b0e8                vTaskSuspendAll
                0x0010b104                xTaskResumeAll
                0x0010b23c                xTaskGetTickCount
                0x0010b25c                xTaskGetTickCountFromISR
                0x0010b280                uxTaskGetNumberOfTasks
                0x0010b298                pcTaskGetName
                0x0010b2e0                uxTaskGetSystemState
                0x0010b3fc                xTaskIncrementTick
                0x0010b54c                vTaskSetApplicationTaskTag
                0x0010b584                xTaskGetApplicationTaskTag
                0x0010b5b8                xTaskGetApplicationTaskTagFromISR
                0x0010b610                xTaskCallApplicationTaskHook
                0x0010b654                vTaskSwitchContext
                0x0010b728                vTaskPlaceOnEventList
                0x0010b770                vTaskPlaceOnUnorderedEventList
                0x0010b7e8                vTaskPlaceOnEventListRestricted
                0x0010b840                xTaskRemoveFromEventList
                0x0010b904                vTaskRemoveFromUnorderedEventList
                0x0010b9c8                vTaskSetTimeOutState
                0x0010ba14                vTaskInternalSetTimeOutState
                0x0010ba40                xTaskCheckForTimeOut
                0x0010bb04                vTaskMissedYield
                0x0010bb1c                uxTaskGetTaskNumber
                0x0010bb48                vTaskSetTaskNumber
                0x0010bc78                vTaskGetInfo
                0x0010be80                xTaskGetCurrentTaskHandle
                0x0010bea0                xTaskGetSchedulerState
                0x0010bedc                xTaskPriorityInherit
                0x0010bfdc                xTaskPriorityDisinherit
                0x0010c0e8                vTaskPriorityDisinheritAfterTimeout
                0x0010c21c                uxTaskResetEventItemValue
                0x0010c24c                pvTaskIncrementMutexHeldCount
                0x0010c274                ulTaskNotifyTake
                0x0010c304                xTaskNotifyWait
                0x0010c3b8                xTaskGenericNotify
                0x0010c524                xTaskGenericNotifyFromISR
                0x0010c6d8                vTaskNotifyGiveFromISR
                0x0010c7fc                xTaskNotifyStateClear
 .text          0x0010c914      0x930 lib/MT3620_M4_Driver/MT3620_M4_BSP/FreeRTOS/libMT3620_M4_FreeRTOS.a(timers.c.obj)
                0x0010c914                xTimerCreateTimerTask
                0x0010c978                xTimerCreate
                0x0010ca30                xTimerGenericCommand
                0x0010cacc                xTimerGetTimerDaemonTaskHandle
                0x0010cb04                xTimerGetPeriod
                0x0010cb3c                vTimerSetReloadMode
                0x0010cba2                xTimerGetExpiryTime
                0x0010cbde                pcTimerGetName
                0x0010d13c                xTimerIsTimerActive
                0x0010d18e                pvTimerGetTimerID
                0x0010d1ce                vTimerSetTimerID
                0x0010d20e                uxTimerGetTimerNumber
                0x0010d226                vTimerSetTimerNumber
 .text          0x0010d244      0x400 lib/MT3620_M4_Driver/MT3620_M4_BSP/FreeRTOS/libMT3620_M4_FreeRTOS.a(heap_4.c.obj)
                0x0010d244                pvPortMalloc
                0x0010d3d8                vPortFree
                0x0010d48c                xPortGetFreeHeapSize
                0x0010d4a4                xPortGetMinimumEverFreeHeapSize
                0x0010d4bc                vPortInitialiseBlocks
 *fill*         0x0010d644        0xc 
 .text          0x0010d650      0x4bc lib/MT3620_M4_Driver/MT3620_M4_BSP/FreeRTOS/libMT3620_M4_FreeRTOS.a(port.c.obj)
                0x0010d650                pxPortInitialiseStack
                0x0010d710                SVC_Handler
                0x0010d75a                xPortStartScheduler
                0x0010d89c                vPortEndScheduler
                0x0010d8d4                vPortEnterCritical
                0x0010d934                vPortExitCritical
                0x0010d988                PendSV_Handler
                0x0010d9f6                SysTick_Handler
                0x0010da3c                vPortSetupTimerInterrupt
                0x0010da84                vPortValidateInterruptPriority
 .text          0x0010db0c      0x168 lib/MT3620_M4_Driver/MT3620_M4_BSP/FreeRTOS/libMT3620_M4_FreeRTOS.a(list.c.obj)
                0x0010db0c                vListInitialise
                0x0010db4c                vListInitialiseItem
                0x0010db66                vListInsertEnd
                0x0010dbae                vListInsert
                0x0010dc20                uxListRemove
 .text          0x0010dc74      0x378 c:/progra~2/gnuarm~1/102021~1.10/bin/../lib/gcc/arm-none-eabi/10.3.1/thumb/v7e-m+fp/hard\libgcc.a(_arm_addsubdf3.o)
                0x0010dc74                __aeabi_drsub
                0x0010dc7c                __aeabi_dsub
                0x0010dc7c                __subdf3
                0x0010dc80                __aeabi_dadd
                0x0010dc80                __adddf3
                0x0010def8                __floatunsidf
                0x0010def8                __aeabi_ui2d
                0x0010df18                __floatsidf
                0x0010df18                __aeabi_i2d
                0x0010df3c                __aeabi_f2d
                0x0010df3c                __extendsfdf2
                0x0010df80                __floatundidf
                0x0010df80                __aeabi_ul2d
                0x0010df90                __floatdidf
                0x0010df90                __aeabi_l2d
 .text          0x0010dfec      0x424 c:/progra~2/gnuarm~1/102021~1.10/bin/../lib/gcc/arm-none-eabi/10.3.1/thumb/v7e-m+fp/hard\libgcc.a(_arm_muldivdf3.o)
                0x0010dfec                __aeabi_dmul
                0x0010dfec                __muldf3
                0x0010e240                __divdf3
                0x0010e240                __aeabi_ddiv
 .text          0x0010e410      0x110 c:/progra~2/gnuarm~1/102021~1.10/bin/../lib/gcc/arm-none-eabi/10.3.1/thumb/v7e-m+fp/hard\libgcc.a(_arm_cmpdf2.o)
                0x0010e410                __gtdf2
                0x0010e410                __gedf2
                0x0010e418                __ltdf2
                0x0010e418                __ledf2
                0x0010e420                __nedf2
                0x0010e420                __eqdf2
                0x0010e420                __cmpdf2
                0x0010e49c                __aeabi_cdrcmple
                0x0010e4ac                __aeabi_cdcmpeq
                0x0010e4ac                __aeabi_cdcmple
                0x0010e4bc                __aeabi_dcmpeq
                0x0010e4d0                __aeabi_dcmplt
                0x0010e4e4                __aeabi_dcmple
                0x0010e4f8                __aeabi_dcmpge
                0x0010e50c                __aeabi_dcmpgt
 .text          0x0010e520       0x50 c:/progra~2/gnuarm~1/102021~1.10/bin/../lib/gcc/arm-none-eabi/10.3.1/thumb/v7e-m+fp/hard\libgcc.a(_arm_fixdfsi.o)
                0x0010e520                __aeabi_d2iz
                0x0010e520                __fixdfsi
 .text          0x0010e570       0x40 c:/progra~2/gnuarm~1/102021~1.10/bin/../lib/gcc/arm-none-eabi/10.3.1/thumb/v7e-m+fp/hard\libgcc.a(_arm_fixunsdfsi.o)
                0x0010e570                __aeabi_d2uiz
                0x0010e570                __fixunsdfsi
 .text          0x0010e5b0       0x30 c:/progra~2/gnuarm~1/102021~1.10/bin/../lib/gcc/arm-none-eabi/10.3.1/thumb/v7e-m+fp/hard\libgcc.a(_aeabi_uldivmod.o)
                0x0010e5b0                __aeabi_uldivmod
 .text          0x0010e5e0      0x2d0 c:/progra~2/gnuarm~1/102021~1.10/bin/../lib/gcc/arm-none-eabi/10.3.1/thumb/v7e-m+fp/hard\libgcc.a(_udivmoddi4.o)
                0x0010e5e0                __udivmoddi4
 .text          0x0010e8b0        0x4 c:/progra~2/gnuarm~1/102021~1.10/bin/../lib/gcc/arm-none-eabi/10.3.1/thumb/v7e-m+fp/hard\libgcc.a(_dvmd_tls.o)
                0x0010e8b0                __aeabi_idiv0
                0x0010e8b0                __aeabi_ldiv0

.glue_7         0x0010e8b4        0x0
 .glue_7        0x0010e8b4        0x0 linker stubs

.glue_7t        0x0010e8b4        0x0
 .glue_7t       0x0010e8b4        0x0 linker stubs

.vfp11_veneer   0x0010e8b4        0x0
 .vfp11_veneer  0x0010e8b4        0x0 linker stubs

.v4_bx          0x0010e8b4        0x0
 .v4_bx         0x0010e8b4        0x0 linker stubs

.iplt           0x0010e8b4        0x0
 .iplt          0x0010e8b4        0x0 CMakeFiles/FreeRTOS_RTcore_GPIO.dir/main.c.obj

.text.memcpy    0x0010e8b4       0x1c
 .text.memcpy   0x0010e8b4       0x1c c:/progra~2/gnuarm~1/102021~1.10/bin/../lib/gcc/arm-none-eabi/10.3.1/../../../../arm-none-eabi/lib/thumb/v7e-m+fp/hard\libg_nano.a(lib_a-memcpy-stub.o)
                0x0010e8b4                memcpy

.text.memset    0x0010e8d0       0x10
 .text.memset   0x0010e8d0       0x10 c:/progra~2/gnuarm~1/102021~1.10/bin/../lib/gcc/arm-none-eabi/10.3.1/../../../../arm-none-eabi/lib/thumb/v7e-m+fp/hard\libg_nano.a(lib_a-memset.o)
                0x0010e8d0                memset

.isr_vector_tcm
 *(.vector_table_tcm)

.rodata         0x0010e8e0      0xa29
 *(.rodata)
 .rodata        0x0010e8e0       0x35 CMakeFiles/FreeRTOS_RTcore_GPIO.dir/main.c.obj
 *fill*         0x0010e915        0x3 
 .rodata        0x0010e918       0x29 CMakeFiles/FreeRTOS_RTcore_GPIO.dir/modules/gpio.c.obj
 *fill*         0x0010e941        0x3 
 .rodata        0x0010e944       0x4d CMakeFiles/FreeRTOS_RTcore_GPIO.dir/modules/module.c.obj
                0x0010e944                uart_port_num
 *fill*         0x0010e991        0x3 
 .rodata        0x0010e994      0x24f CMakeFiles/FreeRTOS_RTcore_GPIO.dir/modules/adc.c.obj
 *fill*         0x0010ebe3        0x1 
 .rodata        0x0010ebe4       0x24 CMakeFiles/FreeRTOS_RTcore_GPIO.dir/OS_HAL/src/os_hal_adc.c.obj
 .rodata        0x0010ec08       0x78 CMakeFiles/FreeRTOS_RTcore_GPIO.dir/OS_HAL/src/os_hal_uart.c.obj
 .rodata        0x0010ec80      0x1e4 CMakeFiles/FreeRTOS_RTcore_GPIO.dir/OS_HAL/src/os_hal_dma.c.obj
 *fill*         0x0010ee64        0x4 
 .rodata        0x0010ee68       0x68 lib/MT3620_M4_Driver/libMT3620_M4_Driver.a(printf.c.obj)
 .rodata        0x0010eed0       0x3c lib/MT3620_M4_Driver/libMT3620_M4_Driver.a(mhal_adc.c.obj)
 .rodata        0x0010ef0c      0x31f lib/MT3620_M4_Driver/libMT3620_M4_Driver.a(mhal_dma.c.obj)
 *fill*         0x0010f22b        0x1 
 .rodata        0x0010f22c       0x12 lib/MT3620_M4_Driver/libMT3620_M4_Driver.a(hdl_dma.c.obj)
 *fill*         0x0010f23e        0x2 
 .rodata        0x0010f240       0x9c lib/MT3620_M4_Driver/libMT3620_M4_Driver.a(mhal_gpio.c.obj)
 .rodata        0x0010f2dc       0x17 lib/MT3620_M4_Driver/libMT3620_M4_Driver.a(hdl_uart.c.obj)
 *fill*         0x0010f2f3        0x1 
 .rodata        0x0010f2f4        0x5 lib/MT3620_M4_Driver/MT3620_M4_BSP/FreeRTOS/libMT3620_M4_FreeRTOS.a(tasks.c.obj)
 *fill*         0x0010f2f9        0x3 
 .rodata        0x0010f2fc        0xd lib/MT3620_M4_Driver/MT3620_M4_BSP/FreeRTOS/libMT3620_M4_FreeRTOS.a(timers.c.obj)

.ARM.exidx      0x0010f30c        0x8
 .ARM.exidx     0x0010f30c        0x8 c:/progra~2/gnuarm~1/102021~1.10/bin/../lib/gcc/arm-none-eabi/10.3.1/thumb/v7e-m+fp/hard\libgcc.a(_udivmoddi4.o)

.rel.dyn        0x0010f314        0x0
 .rel.iplt      0x0010f314        0x0 CMakeFiles/FreeRTOS_RTcore_GPIO.dir/main.c.obj

.data           0x0010f314      0x15c
 *(.data)
 .data          0x0010f314       0x50 CMakeFiles/FreeRTOS_RTcore_GPIO.dir/OS_HAL/src/os_hal_gpio.c.obj
 .data          0x0010f364       0x46 CMakeFiles/FreeRTOS_RTcore_GPIO.dir/OS_HAL/src/os_hal_uart.c.obj
 *fill*         0x0010f3aa        0x2 
 .data          0x0010f3ac       0xc0 lib/MT3620_M4_Driver/lib/MT3620_M4_BSP/libMT3620_M4_BSP.a(cirq_common.c.obj)
                0x0010f3ac                gpio_irq_tbl
 .data          0x0010f46c        0x4 lib/MT3620_M4_Driver/MT3620_M4_BSP/FreeRTOS/libMT3620_M4_FreeRTOS.a(port.c.obj)

.igot.plt       0x0010f470        0x0
 .igot.plt      0x0010f470        0x0 CMakeFiles/FreeRTOS_RTcore_GPIO.dir/main.c.obj

.bss            0x0010f470     0x111c
                0x0010f470                __bss_start__ = .
 *(.bss)
 .bss           0x0010f470        0x2 CMakeFiles/FreeRTOS_RTcore_GPIO.dir/modules/gpio.c.obj
 *fill*         0x0010f472        0x2 
 .bss           0x0010f474        0xc CMakeFiles/FreeRTOS_RTcore_GPIO.dir/modules/adc.c.obj
                0x0010f474                adc_rx_cnt
                0x0010f478                adc_rx_buf_periodic_mode
                0x0010f47c                adc_rx_buf_one_shot_mode
 .bss           0x0010f480       0x44 CMakeFiles/FreeRTOS_RTcore_GPIO.dir/OS_HAL/src/os_hal_adc.c.obj
 .bss           0x0010f4c4      0x210 CMakeFiles/FreeRTOS_RTcore_GPIO.dir/OS_HAL/src/os_hal_uart.c.obj
 .bss           0x0010f6d4      0xca8 CMakeFiles/FreeRTOS_RTcore_GPIO.dir/OS_HAL/src/os_hal_dma.c.obj
 .bss           0x0011037c        0xc lib/MT3620_M4_Driver/lib/MT3620_M4_BSP/libMT3620_M4_BSP.a(nvic.c.obj)
                0x0011037c                sys_tick_in_ms
                0x00110380                backup_handler
                0x00110384                backup_irqn
 .bss           0x00110388       0x40 lib/MT3620_M4_Driver/MT3620_M4_BSP/FreeRTOS/libMT3620_M4_FreeRTOS.a(queue.c.obj)
                0x00110388                xQueueRegistry
 .bss           0x001103c8      0x168 lib/MT3620_M4_Driver/MT3620_M4_BSP/FreeRTOS/libMT3620_M4_FreeRTOS.a(tasks.c.obj)
                0x001103c8                pxCurrentTCB
 .bss           0x00110530       0x3c lib/MT3620_M4_Driver/MT3620_M4_BSP/FreeRTOS/libMT3620_M4_FreeRTOS.a(timers.c.obj)
 .bss           0x0011056c       0x18 lib/MT3620_M4_Driver/MT3620_M4_BSP/FreeRTOS/libMT3620_M4_FreeRTOS.a(heap_4.c.obj)
 .bss           0x00110584        0x8 lib/MT3620_M4_Driver/MT3620_M4_BSP/FreeRTOS/libMT3620_M4_FreeRTOS.a(port.c.obj)
                0x0011058c                __bss_end__ = .
                0x0011058c                . = ALIGN (0x4)
                0x0011058c                end = .

.freertosheap   0x22000000    0x10000
 *(.freertosheap)
 .freertosheap  0x22000000    0x10000 lib/MT3620_M4_Driver/MT3620_M4_BSP/FreeRTOS/libMT3620_M4_FreeRTOS.a(heap_4.c.obj)
                0x00130000                StackTop = (ORIGIN (TCM) + LENGTH (TCM))
OUTPUT(FreeRTOS_RTcore_GPIO.out elf32-littlearm)
LOAD linker stubs

.debug_info     0x00000000     0xf7ea
 .debug_info    0x00000000       0xf1 CMakeFiles/FreeRTOS_RTcore_GPIO.dir/main.c.obj
 .debug_info    0x000000f1      0x4a1 CMakeFiles/FreeRTOS_RTcore_GPIO.dir/modules/gpio.c.obj
 .debug_info    0x00000592      0x282 CMakeFiles/FreeRTOS_RTcore_GPIO.dir/modules/module.c.obj
 .debug_info    0x00000814      0x4b1 CMakeFiles/FreeRTOS_RTcore_GPIO.dir/modules/adc.c.obj
 .debug_info    0x00000cc5      0x963 CMakeFiles/FreeRTOS_RTcore_GPIO.dir/OS_HAL/src/os_hal_adc.c.obj
 .debug_info    0x00001628      0x609 CMakeFiles/FreeRTOS_RTcore_GPIO.dir/OS_HAL/src/os_hal_gpio.c.obj
 .debug_info    0x00001c31      0xbe6 CMakeFiles/FreeRTOS_RTcore_GPIO.dir/OS_HAL/src/os_hal_uart.c.obj
 .debug_info    0x00002817     0x10f3 CMakeFiles/FreeRTOS_RTcore_GPIO.dir/OS_HAL/src/os_hal_dma.c.obj
 .debug_info    0x0000390a      0xe58 lib/MT3620_M4_Driver/libMT3620_M4_Driver.a(printf.c.obj)
 .debug_info    0x00004762      0x8b3 lib/MT3620_M4_Driver/libMT3620_M4_Driver.a(mhal_adc.c.obj)
 .debug_info    0x00005015      0x767 lib/MT3620_M4_Driver/libMT3620_M4_Driver.a(hdl_adc.c.obj)
 .debug_info    0x0000577c      0xaf8 lib/MT3620_M4_Driver/libMT3620_M4_Driver.a(mhal_dma.c.obj)
 .debug_info    0x00006274      0xb8b lib/MT3620_M4_Driver/libMT3620_M4_Driver.a(hdl_dma.c.obj)
 .debug_info    0x00006dff      0xc54 lib/MT3620_M4_Driver/libMT3620_M4_Driver.a(mhal_gpio.c.obj)
 .debug_info    0x00007a53      0x1db lib/MT3620_M4_Driver/libMT3620_M4_Driver.a(hdl_gpio.c.obj)
 .debug_info    0x00007c2e      0xc65 lib/MT3620_M4_Driver/libMT3620_M4_Driver.a(mhal_uart.c.obj)
 .debug_info    0x00008893      0x5a7 lib/MT3620_M4_Driver/libMT3620_M4_Driver.a(hdl_uart.c.obj)
 .debug_info    0x00008e3a      0x995 lib/MT3620_M4_Driver/libMT3620_M4_Driver.a(mhal_osai.c.obj)
 .debug_info    0x000097cf      0x81b lib/MT3620_M4_Driver/lib/MT3620_M4_BSP/libMT3620_M4_BSP.a(nvic.c.obj)
 .debug_info    0x00009fea      0x474 lib/MT3620_M4_Driver/lib/MT3620_M4_BSP/libMT3620_M4_BSP.a(cirq_common.c.obj)
 .debug_info    0x0000a45e       0xfc lib/MT3620_M4_Driver/lib/MT3620_M4_BSP/libMT3620_M4_BSP.a(vector_table.c.obj)
 .debug_info    0x0000a55a       0x26 lib/MT3620_M4_Driver/lib/MT3620_M4_BSP/libMT3620_M4_BSP.a(startup_mt3620.s.obj)
 .debug_info    0x0000a580     0x177f lib/MT3620_M4_Driver/MT3620_M4_BSP/FreeRTOS/libMT3620_M4_FreeRTOS.a(queue.c.obj)
 .debug_info    0x0000bcff     0x21e0 lib/MT3620_M4_Driver/MT3620_M4_BSP/FreeRTOS/libMT3620_M4_FreeRTOS.a(tasks.c.obj)
 .debug_info    0x0000dedf      0xcf0 lib/MT3620_M4_Driver/MT3620_M4_BSP/FreeRTOS/libMT3620_M4_FreeRTOS.a(timers.c.obj)
 .debug_info    0x0000ebcf      0x401 lib/MT3620_M4_Driver/MT3620_M4_BSP/FreeRTOS/libMT3620_M4_FreeRTOS.a(heap_4.c.obj)
 .debug_info    0x0000efd0      0x51e lib/MT3620_M4_Driver/MT3620_M4_BSP/FreeRTOS/libMT3620_M4_FreeRTOS.a(port.c.obj)
 .debug_info    0x0000f4ee      0x2fc lib/MT3620_M4_Driver/MT3620_M4_BSP/FreeRTOS/libMT3620_M4_FreeRTOS.a(list.c.obj)

.debug_abbrev   0x00000000     0x2d46
 .debug_abbrev  0x00000000       0x8c CMakeFiles/FreeRTOS_RTcore_GPIO.dir/main.c.obj
 .debug_abbrev  0x0000008c      0x103 CMakeFiles/FreeRTOS_RTcore_GPIO.dir/modules/gpio.c.obj
 .debug_abbrev  0x0000018f       0xef CMakeFiles/FreeRTOS_RTcore_GPIO.dir/modules/module.c.obj
 .debug_abbrev  0x0000027e      0x199 CMakeFiles/FreeRTOS_RTcore_GPIO.dir/modules/adc.c.obj
 .debug_abbrev  0x00000417      0x24a CMakeFiles/FreeRTOS_RTcore_GPIO.dir/OS_HAL/src/os_hal_adc.c.obj
 .debug_abbrev  0x00000661      0x128 CMakeFiles/FreeRTOS_RTcore_GPIO.dir/OS_HAL/src/os_hal_gpio.c.obj
 .debug_abbrev  0x00000789      0x1e8 CMakeFiles/FreeRTOS_RTcore_GPIO.dir/OS_HAL/src/os_hal_uart.c.obj
 .debug_abbrev  0x00000971      0x29b CMakeFiles/FreeRTOS_RTcore_GPIO.dir/OS_HAL/src/os_hal_dma.c.obj
 .debug_abbrev  0x00000c0c      0x22b lib/MT3620_M4_Driver/libMT3620_M4_Driver.a(printf.c.obj)
 .debug_abbrev  0x00000e37      0x204 lib/MT3620_M4_Driver/libMT3620_M4_Driver.a(mhal_adc.c.obj)
 .debug_abbrev  0x0000103b       0xef lib/MT3620_M4_Driver/libMT3620_M4_Driver.a(hdl_adc.c.obj)
 .debug_abbrev  0x0000112a      0x1e6 lib/MT3620_M4_Driver/libMT3620_M4_Driver.a(mhal_dma.c.obj)
 .debug_abbrev  0x00001310      0x150 lib/MT3620_M4_Driver/libMT3620_M4_Driver.a(hdl_dma.c.obj)
 .debug_abbrev  0x00001460      0x1a9 lib/MT3620_M4_Driver/libMT3620_M4_Driver.a(mhal_gpio.c.obj)
 .debug_abbrev  0x00001609       0xb2 lib/MT3620_M4_Driver/libMT3620_M4_Driver.a(hdl_gpio.c.obj)
 .debug_abbrev  0x000016bb      0x1fc lib/MT3620_M4_Driver/libMT3620_M4_Driver.a(mhal_uart.c.obj)
 .debug_abbrev  0x000018b7      0x162 lib/MT3620_M4_Driver/libMT3620_M4_Driver.a(hdl_uart.c.obj)
 .debug_abbrev  0x00001a19      0x1ea lib/MT3620_M4_Driver/libMT3620_M4_Driver.a(mhal_osai.c.obj)
 .debug_abbrev  0x00001c03      0x24f lib/MT3620_M4_Driver/lib/MT3620_M4_BSP/libMT3620_M4_BSP.a(nvic.c.obj)
 .debug_abbrev  0x00001e52      0x179 lib/MT3620_M4_Driver/lib/MT3620_M4_BSP/libMT3620_M4_BSP.a(cirq_common.c.obj)
 .debug_abbrev  0x00001fcb       0x8f lib/MT3620_M4_Driver/lib/MT3620_M4_BSP/libMT3620_M4_BSP.a(vector_table.c.obj)
 .debug_abbrev  0x0000205a       0x14 lib/MT3620_M4_Driver/lib/MT3620_M4_BSP/libMT3620_M4_BSP.a(startup_mt3620.s.obj)
 .debug_abbrev  0x0000206e      0x2a4 lib/MT3620_M4_Driver/MT3620_M4_BSP/FreeRTOS/libMT3620_M4_FreeRTOS.a(queue.c.obj)
 .debug_abbrev  0x00002312      0x2e1 lib/MT3620_M4_Driver/MT3620_M4_BSP/FreeRTOS/libMT3620_M4_FreeRTOS.a(tasks.c.obj)
 .debug_abbrev  0x000025f3      0x23d lib/MT3620_M4_Driver/MT3620_M4_BSP/FreeRTOS/libMT3620_M4_FreeRTOS.a(timers.c.obj)
 .debug_abbrev  0x00002830      0x1f2 lib/MT3620_M4_Driver/MT3620_M4_BSP/FreeRTOS/libMT3620_M4_FreeRTOS.a(heap_4.c.obj)
 .debug_abbrev  0x00002a22      0x235 lib/MT3620_M4_Driver/MT3620_M4_BSP/FreeRTOS/libMT3620_M4_FreeRTOS.a(port.c.obj)
 .debug_abbrev  0x00002c57       0xef lib/MT3620_M4_Driver/MT3620_M4_BSP/FreeRTOS/libMT3620_M4_FreeRTOS.a(list.c.obj)

.debug_loc      0x00000000     0x8f96
 .debug_loc     0x00000000       0x38 CMakeFiles/FreeRTOS_RTcore_GPIO.dir/main.c.obj
 .debug_loc     0x00000038       0xb4 CMakeFiles/FreeRTOS_RTcore_GPIO.dir/modules/gpio.c.obj
 .debug_loc     0x000000ec       0xcc CMakeFiles/FreeRTOS_RTcore_GPIO.dir/modules/module.c.obj
 .debug_loc     0x000001b8      0x150 CMakeFiles/FreeRTOS_RTcore_GPIO.dir/modules/adc.c.obj
 .debug_loc     0x00000308      0x3c0 CMakeFiles/FreeRTOS_RTcore_GPIO.dir/OS_HAL/src/os_hal_adc.c.obj
 .debug_loc     0x000006c8      0x1e0 CMakeFiles/FreeRTOS_RTcore_GPIO.dir/OS_HAL/src/os_hal_gpio.c.obj
 .debug_loc     0x000008a8      0x64c CMakeFiles/FreeRTOS_RTcore_GPIO.dir/OS_HAL/src/os_hal_uart.c.obj
 .debug_loc     0x00000ef4      0x85c CMakeFiles/FreeRTOS_RTcore_GPIO.dir/OS_HAL/src/os_hal_dma.c.obj
 .debug_loc     0x00001750      0x70a lib/MT3620_M4_Driver/libMT3620_M4_Driver.a(printf.c.obj)
 .debug_loc     0x00001e5a      0x502 lib/MT3620_M4_Driver/libMT3620_M4_Driver.a(mhal_adc.c.obj)
 .debug_loc     0x0000235c      0x4b2 lib/MT3620_M4_Driver/libMT3620_M4_Driver.a(hdl_adc.c.obj)
 .debug_loc     0x0000280e      0x73c lib/MT3620_M4_Driver/libMT3620_M4_Driver.a(mhal_dma.c.obj)
 .debug_loc     0x00002f4a      0xdd8 lib/MT3620_M4_Driver/libMT3620_M4_Driver.a(hdl_dma.c.obj)
 .debug_loc     0x00003d22      0x4ba lib/MT3620_M4_Driver/libMT3620_M4_Driver.a(mhal_gpio.c.obj)
 .debug_loc     0x000041dc      0x140 lib/MT3620_M4_Driver/libMT3620_M4_Driver.a(hdl_gpio.c.obj)
 .debug_loc     0x0000431c      0xa1c lib/MT3620_M4_Driver/libMT3620_M4_Driver.a(mhal_uart.c.obj)
 .debug_loc     0x00004d38      0x50e lib/MT3620_M4_Driver/libMT3620_M4_Driver.a(hdl_uart.c.obj)
 .debug_loc     0x00005246      0x62e lib/MT3620_M4_Driver/libMT3620_M4_Driver.a(mhal_osai.c.obj)
 .debug_loc     0x00005874      0x4e8 lib/MT3620_M4_Driver/lib/MT3620_M4_BSP/libMT3620_M4_BSP.a(nvic.c.obj)
 .debug_loc     0x00005d5c      0x4ac lib/MT3620_M4_Driver/lib/MT3620_M4_BSP/libMT3620_M4_BSP.a(cirq_common.c.obj)
 .debug_loc     0x00006208       0x2c lib/MT3620_M4_Driver/lib/MT3620_M4_BSP/libMT3620_M4_BSP.a(vector_table.c.obj)
 .debug_loc     0x00006234      0xb74 lib/MT3620_M4_Driver/MT3620_M4_BSP/FreeRTOS/libMT3620_M4_FreeRTOS.a(queue.c.obj)
 .debug_loc     0x00006da8     0x13aa lib/MT3620_M4_Driver/MT3620_M4_BSP/FreeRTOS/libMT3620_M4_FreeRTOS.a(tasks.c.obj)
 .debug_loc     0x00008152      0x748 lib/MT3620_M4_Driver/MT3620_M4_BSP/FreeRTOS/libMT3620_M4_FreeRTOS.a(timers.c.obj)
 .debug_loc     0x0000889a      0x224 lib/MT3620_M4_Driver/MT3620_M4_BSP/FreeRTOS/libMT3620_M4_FreeRTOS.a(heap_4.c.obj)
 .debug_loc     0x00008abe      0x30c lib/MT3620_M4_Driver/MT3620_M4_BSP/FreeRTOS/libMT3620_M4_FreeRTOS.a(port.c.obj)
 .debug_loc     0x00008dca      0x1cc lib/MT3620_M4_Driver/MT3620_M4_BSP/FreeRTOS/libMT3620_M4_FreeRTOS.a(list.c.obj)

.debug_aranges  0x00000000      0x380
 .debug_aranges
                0x00000000       0x20 CMakeFiles/FreeRTOS_RTcore_GPIO.dir/main.c.obj
 .debug_aranges
                0x00000020       0x20 CMakeFiles/FreeRTOS_RTcore_GPIO.dir/modules/gpio.c.obj
 .debug_aranges
                0x00000040       0x20 CMakeFiles/FreeRTOS_RTcore_GPIO.dir/modules/module.c.obj
 .debug_aranges
                0x00000060       0x20 CMakeFiles/FreeRTOS_RTcore_GPIO.dir/modules/adc.c.obj
 .debug_aranges
                0x00000080       0x20 CMakeFiles/FreeRTOS_RTcore_GPIO.dir/OS_HAL/src/os_hal_adc.c.obj
 .debug_aranges
                0x000000a0       0x20 CMakeFiles/FreeRTOS_RTcore_GPIO.dir/OS_HAL/src/os_hal_gpio.c.obj
 .debug_aranges
                0x000000c0       0x20 CMakeFiles/FreeRTOS_RTcore_GPIO.dir/OS_HAL/src/os_hal_uart.c.obj
 .debug_aranges
                0x000000e0       0x20 CMakeFiles/FreeRTOS_RTcore_GPIO.dir/OS_HAL/src/os_hal_dma.c.obj
 .debug_aranges
                0x00000100       0x20 lib/MT3620_M4_Driver/libMT3620_M4_Driver.a(printf.c.obj)
 .debug_aranges
                0x00000120       0x20 lib/MT3620_M4_Driver/libMT3620_M4_Driver.a(mhal_adc.c.obj)
 .debug_aranges
                0x00000140       0x20 lib/MT3620_M4_Driver/libMT3620_M4_Driver.a(hdl_adc.c.obj)
 .debug_aranges
                0x00000160       0x20 lib/MT3620_M4_Driver/libMT3620_M4_Driver.a(mhal_dma.c.obj)
 .debug_aranges
                0x00000180       0x20 lib/MT3620_M4_Driver/libMT3620_M4_Driver.a(hdl_dma.c.obj)
 .debug_aranges
                0x000001a0       0x20 lib/MT3620_M4_Driver/libMT3620_M4_Driver.a(mhal_gpio.c.obj)
 .debug_aranges
                0x000001c0       0x20 lib/MT3620_M4_Driver/libMT3620_M4_Driver.a(hdl_gpio.c.obj)
 .debug_aranges
                0x000001e0       0x20 lib/MT3620_M4_Driver/libMT3620_M4_Driver.a(mhal_uart.c.obj)
 .debug_aranges
                0x00000200       0x20 lib/MT3620_M4_Driver/libMT3620_M4_Driver.a(hdl_uart.c.obj)
 .debug_aranges
                0x00000220       0x20 lib/MT3620_M4_Driver/libMT3620_M4_Driver.a(mhal_osai.c.obj)
 .debug_aranges
                0x00000240       0x20 lib/MT3620_M4_Driver/lib/MT3620_M4_BSP/libMT3620_M4_BSP.a(nvic.c.obj)
 .debug_aranges
                0x00000260       0x20 lib/MT3620_M4_Driver/lib/MT3620_M4_BSP/libMT3620_M4_BSP.a(cirq_common.c.obj)
 .debug_aranges
                0x00000280       0x20 lib/MT3620_M4_Driver/lib/MT3620_M4_BSP/libMT3620_M4_BSP.a(vector_table.c.obj)
 .debug_aranges
                0x000002a0       0x20 lib/MT3620_M4_Driver/lib/MT3620_M4_BSP/libMT3620_M4_BSP.a(startup_mt3620.s.obj)
 .debug_aranges
                0x000002c0       0x20 lib/MT3620_M4_Driver/MT3620_M4_BSP/FreeRTOS/libMT3620_M4_FreeRTOS.a(queue.c.obj)
 .debug_aranges
                0x000002e0       0x20 lib/MT3620_M4_Driver/MT3620_M4_BSP/FreeRTOS/libMT3620_M4_FreeRTOS.a(tasks.c.obj)
 .debug_aranges
                0x00000300       0x20 lib/MT3620_M4_Driver/MT3620_M4_BSP/FreeRTOS/libMT3620_M4_FreeRTOS.a(timers.c.obj)
 .debug_aranges
                0x00000320       0x20 lib/MT3620_M4_Driver/MT3620_M4_BSP/FreeRTOS/libMT3620_M4_FreeRTOS.a(heap_4.c.obj)
 .debug_aranges
                0x00000340       0x20 lib/MT3620_M4_Driver/MT3620_M4_BSP/FreeRTOS/libMT3620_M4_FreeRTOS.a(port.c.obj)
 .debug_aranges
                0x00000360       0x20 lib/MT3620_M4_Driver/MT3620_M4_BSP/FreeRTOS/libMT3620_M4_FreeRTOS.a(list.c.obj)

.debug_line     0x00000000     0x93b8
 .debug_line    0x00000000       0xed CMakeFiles/FreeRTOS_RTcore_GPIO.dir/main.c.obj
 .debug_line    0x000000ed      0x27f CMakeFiles/FreeRTOS_RTcore_GPIO.dir/modules/gpio.c.obj
 .debug_line    0x0000036c      0x176 CMakeFiles/FreeRTOS_RTcore_GPIO.dir/modules/module.c.obj
 .debug_line    0x000004e2      0x595 CMakeFiles/FreeRTOS_RTcore_GPIO.dir/modules/adc.c.obj
 .debug_line    0x00000a77      0x5ab CMakeFiles/FreeRTOS_RTcore_GPIO.dir/OS_HAL/src/os_hal_adc.c.obj
 .debug_line    0x00001022      0x12e CMakeFiles/FreeRTOS_RTcore_GPIO.dir/OS_HAL/src/os_hal_gpio.c.obj
 .debug_line    0x00001150      0x563 CMakeFiles/FreeRTOS_RTcore_GPIO.dir/OS_HAL/src/os_hal_uart.c.obj
 .debug_line    0x000016b3      0x720 CMakeFiles/FreeRTOS_RTcore_GPIO.dir/OS_HAL/src/os_hal_dma.c.obj
 .debug_line    0x00001dd3      0xc1a lib/MT3620_M4_Driver/libMT3620_M4_Driver.a(printf.c.obj)
 .debug_line    0x000029ed      0x438 lib/MT3620_M4_Driver/libMT3620_M4_Driver.a(mhal_adc.c.obj)
 .debug_line    0x00002e25      0x1f6 lib/MT3620_M4_Driver/libMT3620_M4_Driver.a(hdl_adc.c.obj)
 .debug_line    0x0000301b      0x757 lib/MT3620_M4_Driver/libMT3620_M4_Driver.a(mhal_dma.c.obj)
 .debug_line    0x00003772      0x3b7 lib/MT3620_M4_Driver/libMT3620_M4_Driver.a(hdl_dma.c.obj)
 .debug_line    0x00003b29      0x5fd lib/MT3620_M4_Driver/libMT3620_M4_Driver.a(mhal_gpio.c.obj)
 .debug_line    0x00004126      0x113 lib/MT3620_M4_Driver/libMT3620_M4_Driver.a(hdl_gpio.c.obj)
 .debug_line    0x00004239      0x53c lib/MT3620_M4_Driver/libMT3620_M4_Driver.a(mhal_uart.c.obj)
 .debug_line    0x00004775      0x28d lib/MT3620_M4_Driver/libMT3620_M4_Driver.a(hdl_uart.c.obj)
 .debug_line    0x00004a02      0x3cf lib/MT3620_M4_Driver/libMT3620_M4_Driver.a(mhal_osai.c.obj)
 .debug_line    0x00004dd1      0x379 lib/MT3620_M4_Driver/lib/MT3620_M4_BSP/libMT3620_M4_BSP.a(nvic.c.obj)
 .debug_line    0x0000514a      0xafb lib/MT3620_M4_Driver/lib/MT3620_M4_BSP/libMT3620_M4_BSP.a(cirq_common.c.obj)
 .debug_line    0x00005c45      0x1ac lib/MT3620_M4_Driver/lib/MT3620_M4_BSP/libMT3620_M4_BSP.a(vector_table.c.obj)
 .debug_line    0x00005df1       0x8f lib/MT3620_M4_Driver/lib/MT3620_M4_BSP/libMT3620_M4_BSP.a(startup_mt3620.s.obj)
 .debug_line    0x00005e80      0xf18 lib/MT3620_M4_Driver/MT3620_M4_BSP/FreeRTOS/libMT3620_M4_FreeRTOS.a(queue.c.obj)
 .debug_line    0x00006d98     0x149f lib/MT3620_M4_Driver/MT3620_M4_BSP/FreeRTOS/libMT3620_M4_FreeRTOS.a(tasks.c.obj)
 .debug_line    0x00008237      0x6ad lib/MT3620_M4_Driver/MT3620_M4_BSP/FreeRTOS/libMT3620_M4_FreeRTOS.a(timers.c.obj)
 .debug_line    0x000088e4      0x41c lib/MT3620_M4_Driver/MT3620_M4_BSP/FreeRTOS/libMT3620_M4_FreeRTOS.a(heap_4.c.obj)
 .debug_line    0x00008d00      0x406 lib/MT3620_M4_Driver/MT3620_M4_BSP/FreeRTOS/libMT3620_M4_FreeRTOS.a(port.c.obj)
 .debug_line    0x00009106      0x2b2 lib/MT3620_M4_Driver/MT3620_M4_BSP/FreeRTOS/libMT3620_M4_FreeRTOS.a(list.c.obj)

.debug_str      0x00000000     0x64de
 .debug_str     0x00000000      0x1fe CMakeFiles/FreeRTOS_RTcore_GPIO.dir/main.c.obj
                                0x237 (size before relaxing)
 .debug_str     0x000001fe      0x878 CMakeFiles/FreeRTOS_RTcore_GPIO.dir/modules/gpio.c.obj
                                0x9eb (size before relaxing)
 .debug_str     0x00000a76       0xbb CMakeFiles/FreeRTOS_RTcore_GPIO.dir/modules/module.c.obj
                                0x4a9 (size before relaxing)
 .debug_str     0x00000b31      0x2ce CMakeFiles/FreeRTOS_RTcore_GPIO.dir/modules/adc.c.obj
                                0x679 (size before relaxing)
 .debug_str     0x00000dff      0x558 CMakeFiles/FreeRTOS_RTcore_GPIO.dir/OS_HAL/src/os_hal_adc.c.obj
                                0x901 (size before relaxing)
 .debug_str     0x00001357      0x1ae CMakeFiles/FreeRTOS_RTcore_GPIO.dir/OS_HAL/src/os_hal_gpio.c.obj
                                0xaff (size before relaxing)
 .debug_str     0x00001505      0x517 CMakeFiles/FreeRTOS_RTcore_GPIO.dir/OS_HAL/src/os_hal_uart.c.obj
                                0x9c3 (size before relaxing)
 .debug_str     0x00001a1c      0x6c3 CMakeFiles/FreeRTOS_RTcore_GPIO.dir/OS_HAL/src/os_hal_dma.c.obj
                                0xd6f (size before relaxing)
 .debug_str     0x000020df      0x1d4 lib/MT3620_M4_Driver/libMT3620_M4_Driver.a(printf.c.obj)
                                0x3a7 (size before relaxing)
 .debug_str     0x000022b3      0x3e6 lib/MT3620_M4_Driver/libMT3620_M4_Driver.a(mhal_adc.c.obj)
                                0x7eb (size before relaxing)
 .debug_str     0x00002699      0x29a lib/MT3620_M4_Driver/libMT3620_M4_Driver.a(hdl_adc.c.obj)
                                0x462 (size before relaxing)
 .debug_str     0x00002933      0x2f3 lib/MT3620_M4_Driver/libMT3620_M4_Driver.a(mhal_dma.c.obj)
                                0x7e8 (size before relaxing)
 .debug_str     0x00002c26      0x4e8 lib/MT3620_M4_Driver/libMT3620_M4_Driver.a(hdl_dma.c.obj)
                                0x6c1 (size before relaxing)
 .debug_str     0x0000310e      0x77f lib/MT3620_M4_Driver/libMT3620_M4_Driver.a(mhal_gpio.c.obj)
                                0xba0 (size before relaxing)
 .debug_str     0x0000388d       0xc0 lib/MT3620_M4_Driver/libMT3620_M4_Driver.a(hdl_gpio.c.obj)
                                0x255 (size before relaxing)
 .debug_str     0x0000394d      0x4a1 lib/MT3620_M4_Driver/libMT3620_M4_Driver.a(mhal_uart.c.obj)
                                0x9d7 (size before relaxing)
 .debug_str     0x00003dee      0x265 lib/MT3620_M4_Driver/libMT3620_M4_Driver.a(hdl_uart.c.obj)
                                0x42f (size before relaxing)
 .debug_str     0x00004053      0x1e2 lib/MT3620_M4_Driver/libMT3620_M4_Driver.a(mhal_osai.c.obj)
                                0x98e (size before relaxing)
 .debug_str     0x00004235      0x21c lib/MT3620_M4_Driver/lib/MT3620_M4_BSP/libMT3620_M4_BSP.a(nvic.c.obj)
                                0x53f (size before relaxing)
 .debug_str     0x00004451      0x1d5 lib/MT3620_M4_Driver/lib/MT3620_M4_BSP/libMT3620_M4_BSP.a(cirq_common.c.obj)
                                0x359 (size before relaxing)
 .debug_str     0x00004626       0x70 lib/MT3620_M4_Driver/lib/MT3620_M4_BSP/libMT3620_M4_BSP.a(vector_table.c.obj)
                                0x1fa (size before relaxing)
 .debug_str     0x00004696       0x5f lib/MT3620_M4_Driver/lib/MT3620_M4_BSP/libMT3620_M4_BSP.a(startup_mt3620.s.obj)
                                 0x94 (size before relaxing)
 .debug_str     0x000046f5      0x744 lib/MT3620_M4_Driver/MT3620_M4_BSP/FreeRTOS/libMT3620_M4_FreeRTOS.a(queue.c.obj)
                                0x993 (size before relaxing)
 .debug_str     0x00004e39      0xd42 lib/MT3620_M4_Driver/MT3620_M4_BSP/FreeRTOS/libMT3620_M4_FreeRTOS.a(tasks.c.obj)
                               0x10fd (size before relaxing)
 .debug_str     0x00005b7b      0x491 lib/MT3620_M4_Driver/MT3620_M4_BSP/FreeRTOS/libMT3620_M4_FreeRTOS.a(timers.c.obj)
                                0x79f (size before relaxing)
 .debug_str     0x0000600c      0x205 lib/MT3620_M4_Driver/MT3620_M4_BSP/FreeRTOS/libMT3620_M4_FreeRTOS.a(heap_4.c.obj)
                                0x3db (size before relaxing)
 .debug_str     0x00006211      0x206 lib/MT3620_M4_Driver/MT3620_M4_BSP/FreeRTOS/libMT3620_M4_FreeRTOS.a(port.c.obj)
                                0x435 (size before relaxing)
 .debug_str     0x00006417       0xc7 lib/MT3620_M4_Driver/MT3620_M4_BSP/FreeRTOS/libMT3620_M4_FreeRTOS.a(list.c.obj)
                                0x2fc (size before relaxing)

.comment        0x00000000       0x49
 .comment       0x00000000       0x49 CMakeFiles/FreeRTOS_RTcore_GPIO.dir/main.c.obj
                                 0x4a (size before relaxing)
 .comment       0x00000049       0x4a CMakeFiles/FreeRTOS_RTcore_GPIO.dir/modules/gpio.c.obj
 .comment       0x00000049       0x4a CMakeFiles/FreeRTOS_RTcore_GPIO.dir/modules/module.c.obj
 .comment       0x00000049       0x4a CMakeFiles/FreeRTOS_RTcore_GPIO.dir/modules/adc.c.obj
 .comment       0x00000049       0x4a CMakeFiles/FreeRTOS_RTcore_GPIO.dir/OS_HAL/src/os_hal_adc.c.obj
 .comment       0x00000049       0x4a CMakeFiles/FreeRTOS_RTcore_GPIO.dir/OS_HAL/src/os_hal_gpio.c.obj
 .comment       0x00000049       0x4a CMakeFiles/FreeRTOS_RTcore_GPIO.dir/OS_HAL/src/os_hal_uart.c.obj
 .comment       0x00000049       0x4a CMakeFiles/FreeRTOS_RTcore_GPIO.dir/OS_HAL/src/os_hal_dma.c.obj
 .comment       0x00000049       0x4a lib/MT3620_M4_Driver/libMT3620_M4_Driver.a(printf.c.obj)
 .comment       0x00000049       0x4a lib/MT3620_M4_Driver/libMT3620_M4_Driver.a(mhal_adc.c.obj)
 .comment       0x00000049       0x4a lib/MT3620_M4_Driver/libMT3620_M4_Driver.a(hdl_adc.c.obj)
 .comment       0x00000049       0x4a lib/MT3620_M4_Driver/libMT3620_M4_Driver.a(mhal_dma.c.obj)
 .comment       0x00000049       0x4a lib/MT3620_M4_Driver/libMT3620_M4_Driver.a(hdl_dma.c.obj)
 .comment       0x00000049       0x4a lib/MT3620_M4_Driver/libMT3620_M4_Driver.a(mhal_gpio.c.obj)
 .comment       0x00000049       0x4a lib/MT3620_M4_Driver/libMT3620_M4_Driver.a(hdl_gpio.c.obj)
 .comment       0x00000049       0x4a lib/MT3620_M4_Driver/libMT3620_M4_Driver.a(mhal_uart.c.obj)
 .comment       0x00000049       0x4a lib/MT3620_M4_Driver/libMT3620_M4_Driver.a(hdl_uart.c.obj)
 .comment       0x00000049       0x4a lib/MT3620_M4_Driver/libMT3620_M4_Driver.a(mhal_osai.c.obj)
 .comment       0x00000049       0x4a lib/MT3620_M4_Driver/lib/MT3620_M4_BSP/libMT3620_M4_BSP.a(nvic.c.obj)
 .comment       0x00000049       0x4a lib/MT3620_M4_Driver/lib/MT3620_M4_BSP/libMT3620_M4_BSP.a(cirq_common.c.obj)
 .comment       0x00000049       0x4a lib/MT3620_M4_Driver/lib/MT3620_M4_BSP/libMT3620_M4_BSP.a(vector_table.c.obj)
 .comment       0x00000049       0x4a lib/MT3620_M4_Driver/MT3620_M4_BSP/FreeRTOS/libMT3620_M4_FreeRTOS.a(queue.c.obj)
 .comment       0x00000049       0x4a lib/MT3620_M4_Driver/MT3620_M4_BSP/FreeRTOS/libMT3620_M4_FreeRTOS.a(tasks.c.obj)
 .comment       0x00000049       0x4a lib/MT3620_M4_Driver/MT3620_M4_BSP/FreeRTOS/libMT3620_M4_FreeRTOS.a(timers.c.obj)
 .comment       0x00000049       0x4a lib/MT3620_M4_Driver/MT3620_M4_BSP/FreeRTOS/libMT3620_M4_FreeRTOS.a(heap_4.c.obj)
 .comment       0x00000049       0x4a lib/MT3620_M4_Driver/MT3620_M4_BSP/FreeRTOS/libMT3620_M4_FreeRTOS.a(port.c.obj)
 .comment       0x00000049       0x4a lib/MT3620_M4_Driver/MT3620_M4_BSP/FreeRTOS/libMT3620_M4_FreeRTOS.a(list.c.obj)

.ARM.attributes
                0x00000000       0x32
 .ARM.attributes
                0x00000000       0x34 CMakeFiles/FreeRTOS_RTcore_GPIO.dir/main.c.obj
 .ARM.attributes
                0x00000034       0x34 CMakeFiles/FreeRTOS_RTcore_GPIO.dir/modules/gpio.c.obj
 .ARM.attributes
                0x00000068       0x34 CMakeFiles/FreeRTOS_RTcore_GPIO.dir/modules/module.c.obj
 .ARM.attributes
                0x0000009c       0x34 CMakeFiles/FreeRTOS_RTcore_GPIO.dir/modules/adc.c.obj
 .ARM.attributes
                0x000000d0       0x34 CMakeFiles/FreeRTOS_RTcore_GPIO.dir/OS_HAL/src/os_hal_adc.c.obj
 .ARM.attributes
                0x00000104       0x34 CMakeFiles/FreeRTOS_RTcore_GPIO.dir/OS_HAL/src/os_hal_gpio.c.obj
 .ARM.attributes
                0x00000138       0x34 CMakeFiles/FreeRTOS_RTcore_GPIO.dir/OS_HAL/src/os_hal_uart.c.obj
 .ARM.attributes
                0x0000016c       0x34 CMakeFiles/FreeRTOS_RTcore_GPIO.dir/OS_HAL/src/os_hal_dma.c.obj
 .ARM.attributes
                0x000001a0       0x34 lib/MT3620_M4_Driver/libMT3620_M4_Driver.a(printf.c.obj)
 .ARM.attributes
                0x000001d4       0x34 lib/MT3620_M4_Driver/libMT3620_M4_Driver.a(mhal_adc.c.obj)
 .ARM.attributes
                0x00000208       0x34 lib/MT3620_M4_Driver/libMT3620_M4_Driver.a(hdl_adc.c.obj)
 .ARM.attributes
                0x0000023c       0x34 lib/MT3620_M4_Driver/libMT3620_M4_Driver.a(mhal_dma.c.obj)
 .ARM.attributes
                0x00000270       0x34 lib/MT3620_M4_Driver/libMT3620_M4_Driver.a(hdl_dma.c.obj)
 .ARM.attributes
                0x000002a4       0x34 lib/MT3620_M4_Driver/libMT3620_M4_Driver.a(mhal_gpio.c.obj)
 .ARM.attributes
                0x000002d8       0x34 lib/MT3620_M4_Driver/libMT3620_M4_Driver.a(hdl_gpio.c.obj)
 .ARM.attributes
                0x0000030c       0x34 lib/MT3620_M4_Driver/libMT3620_M4_Driver.a(mhal_uart.c.obj)
 .ARM.attributes
                0x00000340       0x34 lib/MT3620_M4_Driver/libMT3620_M4_Driver.a(hdl_uart.c.obj)
 .ARM.attributes
                0x00000374       0x34 lib/MT3620_M4_Driver/libMT3620_M4_Driver.a(mhal_osai.c.obj)
 .ARM.attributes
                0x000003a8       0x34 lib/MT3620_M4_Driver/lib/MT3620_M4_BSP/libMT3620_M4_BSP.a(nvic.c.obj)
 .ARM.attributes
                0x000003dc       0x34 lib/MT3620_M4_Driver/lib/MT3620_M4_BSP/libMT3620_M4_BSP.a(cirq_common.c.obj)
 .ARM.attributes
                0x00000410       0x34 lib/MT3620_M4_Driver/lib/MT3620_M4_BSP/libMT3620_M4_BSP.a(vector_table.c.obj)
 .ARM.attributes
                0x00000444       0x1b lib/MT3620_M4_Driver/lib/MT3620_M4_BSP/libMT3620_M4_BSP.a(startup_mt3620.s.obj)
 .ARM.attributes
                0x0000045f       0x34 lib/MT3620_M4_Driver/MT3620_M4_BSP/FreeRTOS/libMT3620_M4_FreeRTOS.a(queue.c.obj)
 .ARM.attributes
                0x00000493       0x34 lib/MT3620_M4_Driver/MT3620_M4_BSP/FreeRTOS/libMT3620_M4_FreeRTOS.a(tasks.c.obj)
 .ARM.attributes
                0x000004c7       0x34 lib/MT3620_M4_Driver/MT3620_M4_BSP/FreeRTOS/libMT3620_M4_FreeRTOS.a(timers.c.obj)
 .ARM.attributes
                0x000004fb       0x34 lib/MT3620_M4_Driver/MT3620_M4_BSP/FreeRTOS/libMT3620_M4_FreeRTOS.a(heap_4.c.obj)
 .ARM.attributes
                0x0000052f       0x34 lib/MT3620_M4_Driver/MT3620_M4_BSP/FreeRTOS/libMT3620_M4_FreeRTOS.a(port.c.obj)
 .ARM.attributes
                0x00000563       0x34 lib/MT3620_M4_Driver/MT3620_M4_BSP/FreeRTOS/libMT3620_M4_FreeRTOS.a(list.c.obj)
 .ARM.attributes
                0x00000597       0x1e c:/progra~2/gnuarm~1/102021~1.10/bin/../lib/gcc/arm-none-eabi/10.3.1/thumb/v7e-m+fp/hard\libgcc.a(_arm_addsubdf3.o)
 .ARM.attributes
                0x000005b5       0x1e c:/progra~2/gnuarm~1/102021~1.10/bin/../lib/gcc/arm-none-eabi/10.3.1/thumb/v7e-m+fp/hard\libgcc.a(_arm_muldivdf3.o)
 .ARM.attributes
                0x000005d3       0x1e c:/progra~2/gnuarm~1/102021~1.10/bin/../lib/gcc/arm-none-eabi/10.3.1/thumb/v7e-m+fp/hard\libgcc.a(_arm_cmpdf2.o)
 .ARM.attributes
                0x000005f1       0x1e c:/progra~2/gnuarm~1/102021~1.10/bin/../lib/gcc/arm-none-eabi/10.3.1/thumb/v7e-m+fp/hard\libgcc.a(_arm_fixdfsi.o)
 .ARM.attributes
                0x0000060f       0x1e c:/progra~2/gnuarm~1/102021~1.10/bin/../lib/gcc/arm-none-eabi/10.3.1/thumb/v7e-m+fp/hard\libgcc.a(_arm_fixunsdfsi.o)
 .ARM.attributes
                0x0000062d       0x1e c:/progra~2/gnuarm~1/102021~1.10/bin/../lib/gcc/arm-none-eabi/10.3.1/thumb/v7e-m+fp/hard\libgcc.a(_aeabi_uldivmod.o)
 .ARM.attributes
                0x0000064b       0x34 c:/progra~2/gnuarm~1/102021~1.10/bin/../lib/gcc/arm-none-eabi/10.3.1/thumb/v7e-m+fp/hard\libgcc.a(_udivmoddi4.o)
 .ARM.attributes
                0x0000067f       0x1e c:/progra~2/gnuarm~1/102021~1.10/bin/../lib/gcc/arm-none-eabi/10.3.1/thumb/v7e-m+fp/hard\libgcc.a(_dvmd_tls.o)
 .ARM.attributes
                0x0000069d       0x34 c:/progra~2/gnuarm~1/102021~1.10/bin/../lib/gcc/arm-none-eabi/10.3.1/../../../../arm-none-eabi/lib/thumb/v7e-m+fp/hard\libg_nano.a(lib_a-memcpy-stub.o)
 .ARM.attributes
                0x000006d1       0x34 c:/progra~2/gnuarm~1/102021~1.10/bin/../lib/gcc/arm-none-eabi/10.3.1/../../../../arm-none-eabi/lib/thumb/v7e-m+fp/hard\libg_nano.a(lib_a-memset.o)

.debug_frame    0x00000000     0x45d8
 .debug_frame   0x00000000       0x30 CMakeFiles/FreeRTOS_RTcore_GPIO.dir/main.c.obj
 .debug_frame   0x00000030       0x70 CMakeFiles/FreeRTOS_RTcore_GPIO.dir/modules/gpio.c.obj
 .debug_frame   0x000000a0       0x74 CMakeFiles/FreeRTOS_RTcore_GPIO.dir/modules/module.c.obj
 .debug_frame   0x00000114       0xb4 CMakeFiles/FreeRTOS_RTcore_GPIO.dir/modules/adc.c.obj
 .debug_frame   0x000001c8      0x1c0 CMakeFiles/FreeRTOS_RTcore_GPIO.dir/OS_HAL/src/os_hal_adc.c.obj
 .debug_frame   0x00000388       0xe8 CMakeFiles/FreeRTOS_RTcore_GPIO.dir/OS_HAL/src/os_hal_gpio.c.obj
 .debug_frame   0x00000470      0x2ec CMakeFiles/FreeRTOS_RTcore_GPIO.dir/OS_HAL/src/os_hal_uart.c.obj
 .debug_frame   0x0000075c      0x3d4 CMakeFiles/FreeRTOS_RTcore_GPIO.dir/OS_HAL/src/os_hal_dma.c.obj
 .debug_frame   0x00000b30      0x384 lib/MT3620_M4_Driver/libMT3620_M4_Driver.a(printf.c.obj)
 .debug_frame   0x00000eb4      0x254 lib/MT3620_M4_Driver/libMT3620_M4_Driver.a(mhal_adc.c.obj)
 .debug_frame   0x00001108      0x238 lib/MT3620_M4_Driver/libMT3620_M4_Driver.a(hdl_adc.c.obj)
 .debug_frame   0x00001340      0x358 lib/MT3620_M4_Driver/libMT3620_M4_Driver.a(mhal_dma.c.obj)
 .debug_frame   0x00001698      0x648 lib/MT3620_M4_Driver/libMT3620_M4_Driver.a(hdl_dma.c.obj)
 .debug_frame   0x00001ce0      0x24c lib/MT3620_M4_Driver/libMT3620_M4_Driver.a(mhal_gpio.c.obj)
 .debug_frame   0x00001f2c       0xa0 lib/MT3620_M4_Driver/libMT3620_M4_Driver.a(hdl_gpio.c.obj)
 .debug_frame   0x00001fcc      0x4a4 lib/MT3620_M4_Driver/libMT3620_M4_Driver.a(mhal_uart.c.obj)
 .debug_frame   0x00002470      0x254 lib/MT3620_M4_Driver/libMT3620_M4_Driver.a(hdl_uart.c.obj)
 .debug_frame   0x000026c4      0x2d0 lib/MT3620_M4_Driver/libMT3620_M4_Driver.a(mhal_osai.c.obj)
 .debug_frame   0x00002994      0x250 lib/MT3620_M4_Driver/lib/MT3620_M4_BSP/libMT3620_M4_BSP.a(nvic.c.obj)
 .debug_frame   0x00002be4      0x218 lib/MT3620_M4_Driver/lib/MT3620_M4_BSP/libMT3620_M4_BSP.a(cirq_common.c.obj)
 .debug_frame   0x00002dfc       0x28 lib/MT3620_M4_Driver/lib/MT3620_M4_BSP/libMT3620_M4_BSP.a(vector_table.c.obj)
 .debug_frame   0x00002e24      0x530 lib/MT3620_M4_Driver/MT3620_M4_BSP/FreeRTOS/libMT3620_M4_FreeRTOS.a(queue.c.obj)
 .debug_frame   0x00003354      0x8e4 lib/MT3620_M4_Driver/MT3620_M4_BSP/FreeRTOS/libMT3620_M4_FreeRTOS.a(tasks.c.obj)
 .debug_frame   0x00003c38      0x368 lib/MT3620_M4_Driver/MT3620_M4_BSP/FreeRTOS/libMT3620_M4_FreeRTOS.a(timers.c.obj)
 .debug_frame   0x00003fa0      0x108 lib/MT3620_M4_Driver/MT3620_M4_BSP/FreeRTOS/libMT3620_M4_FreeRTOS.a(heap_4.c.obj)
 .debug_frame   0x000040a8      0x1a8 lib/MT3620_M4_Driver/MT3620_M4_BSP/FreeRTOS/libMT3620_M4_FreeRTOS.a(port.c.obj)
 .debug_frame   0x00004250       0xd8 lib/MT3620_M4_Driver/MT3620_M4_BSP/FreeRTOS/libMT3620_M4_FreeRTOS.a(list.c.obj)
 .debug_frame   0x00004328       0xac c:/progra~2/gnuarm~1/102021~1.10/bin/../lib/gcc/arm-none-eabi/10.3.1/thumb/v7e-m+fp/hard\libgcc.a(_arm_addsubdf3.o)
 .debug_frame   0x000043d4       0x50 c:/progra~2/gnuarm~1/102021~1.10/bin/../lib/gcc/arm-none-eabi/10.3.1/thumb/v7e-m+fp/hard\libgcc.a(_arm_muldivdf3.o)
 .debug_frame   0x00004424       0xc4 c:/progra~2/gnuarm~1/102021~1.10/bin/../lib/gcc/arm-none-eabi/10.3.1/thumb/v7e-m+fp/hard\libgcc.a(_arm_cmpdf2.o)
 .debug_frame   0x000044e8       0x24 c:/progra~2/gnuarm~1/102021~1.10/bin/../lib/gcc/arm-none-eabi/10.3.1/thumb/v7e-m+fp/hard\libgcc.a(_arm_fixdfsi.o)
 .debug_frame   0x0000450c       0x24 c:/progra~2/gnuarm~1/102021~1.10/bin/../lib/gcc/arm-none-eabi/10.3.1/thumb/v7e-m+fp/hard\libgcc.a(_arm_fixunsdfsi.o)
 .debug_frame   0x00004530       0x2c c:/progra~2/gnuarm~1/102021~1.10/bin/../lib/gcc/arm-none-eabi/10.3.1/thumb/v7e-m+fp/hard\libgcc.a(_aeabi_uldivmod.o)
 .debug_frame   0x0000455c       0x34 c:/progra~2/gnuarm~1/102021~1.10/bin/../lib/gcc/arm-none-eabi/10.3.1/thumb/v7e-m+fp/hard\libgcc.a(_udivmoddi4.o)
 .debug_frame   0x00004590       0x28 c:/progra~2/gnuarm~1/102021~1.10/bin/../lib/gcc/arm-none-eabi/10.3.1/../../../../arm-none-eabi/lib/thumb/v7e-m+fp/hard\libg_nano.a(lib_a-memcpy-stub.o)
 .debug_frame   0x000045b8       0x20 c:/progra~2/gnuarm~1/102021~1.10/bin/../lib/gcc/arm-none-eabi/10.3.1/../../../../arm-none-eabi/lib/thumb/v7e-m+fp/hard\libg_nano.a(lib_a-memset.o)
